ARM GAS  C:\Users\ASUS\AppData\Local\Temp\ccRYIQKw.s 			page 1


   1              		.cpu cortex-m4
   2              		.arch armv7e-m
   3              		.fpu fpv4-sp-d16
   4              		.eabi_attribute 27, 1
   5              		.eabi_attribute 28, 1
   6              		.eabi_attribute 20, 1
   7              		.eabi_attribute 21, 1
   8              		.eabi_attribute 23, 3
   9              		.eabi_attribute 24, 1
  10              		.eabi_attribute 25, 1
  11              		.eabi_attribute 26, 1
  12              		.eabi_attribute 30, 1
  13              		.eabi_attribute 34, 1
  14              		.eabi_attribute 18, 4
  15              		.file	"btn_task.c"
  16              		.text
  17              	.Ltext0:
  18              		.cfi_sections	.debug_frame
  19              		.section	.text.read_button_gpio,"ax",%progbits
  20              		.align	1
  21              		.global	read_button_gpio
  22              		.syntax unified
  23              		.thumb
  24              		.thumb_func
  26              	read_button_gpio:
  27              	.LVL0:
  28              	.LFB138:
  29              		.file 1 "Core/App/btn_task.c"
   1:Core/App/btn_task.c **** #include "cmsis_os.h"
   2:Core/App/btn_task.c **** #include "main.h"
   3:Core/App/btn_task.c **** #include "multi_button.h"
   4:Core/App/btn_task.c **** 
   5:Core/App/btn_task.c **** #define BUTTON1_GPIO_Port GPIOD
   6:Core/App/btn_task.c **** #define BUTTON1_Pin GPIO_PIN_3
   7:Core/App/btn_task.c **** 
   8:Core/App/btn_task.c **** uint16_t click = 0;
   9:Core/App/btn_task.c **** 
  10:Core/App/btn_task.c **** uint8_t read_button_gpio(uint8_t button_id)
  11:Core/App/btn_task.c **** {
  30              		.loc 1 11 1 view -0
  31              		.cfi_startproc
  32              		@ args = 0, pretend = 0, frame = 0
  33              		@ frame_needed = 0, uses_anonymous_args = 0
  12:Core/App/btn_task.c ****     switch (button_id) {
  34              		.loc 1 12 5 view .LVU1
  35 0000 0128     		cmp	r0, #1
  36 0002 01D0     		beq	.L8
  13:Core/App/btn_task.c ****         case 1:
  14:Core/App/btn_task.c ****             return HAL_GPIO_ReadPin(BUTTON1_GPIO_Port, BUTTON1_Pin);
  15:Core/App/btn_task.c ****         default:
  16:Core/App/btn_task.c ****             return 0;
  37              		.loc 1 16 20 is_stmt 0 view .LVU2
  38 0004 0020     		movs	r0, #0
  39              	.LVL1:
  17:Core/App/btn_task.c ****     }
  18:Core/App/btn_task.c **** }
  40              		.loc 1 18 1 view .LVU3
ARM GAS  C:\Users\ASUS\AppData\Local\Temp\ccRYIQKw.s 			page 2


  41 0006 7047     		bx	lr
  42              	.LVL2:
  43              	.L8:
  11:Core/App/btn_task.c ****     switch (button_id) {
  44              		.loc 1 11 1 view .LVU4
  45 0008 08B5     		push	{r3, lr}
  46              	.LCFI0:
  47              		.cfi_def_cfa_offset 8
  48              		.cfi_offset 3, -8
  49              		.cfi_offset 14, -4
  14:Core/App/btn_task.c ****         default:
  50              		.loc 1 14 13 is_stmt 1 view .LVU5
  14:Core/App/btn_task.c ****         default:
  51              		.loc 1 14 20 is_stmt 0 view .LVU6
  52 000a 0821     		movs	r1, #8
  53 000c 0148     		ldr	r0, .L9
  54              	.LVL3:
  14:Core/App/btn_task.c ****         default:
  55              		.loc 1 14 20 view .LVU7
  56 000e FFF7FEFF 		bl	HAL_GPIO_ReadPin
  57              	.LVL4:
  58              		.loc 1 18 1 view .LVU8
  59 0012 08BD     		pop	{r3, pc}
  60              	.L10:
  61              		.align	2
  62              	.L9:
  63 0014 000C0240 		.word	1073875968
  64              		.cfi_endproc
  65              	.LFE138:
  67              		.section	.text.Btn_Msg_Send,"ax",%progbits
  68              		.align	1
  69              		.global	Btn_Msg_Send
  70              		.syntax unified
  71              		.thumb
  72              		.thumb_func
  74              	Btn_Msg_Send:
  75              	.LVL5:
  76              	.LFB140:
  19:Core/App/btn_task.c **** 
  20:Core/App/btn_task.c **** void LED_Toggle(Button* btn, void* user_data)
  21:Core/App/btn_task.c **** {
  22:Core/App/btn_task.c ****     HAL_GPIO_TogglePin(GPIOD, GPIO_PIN_4);
  23:Core/App/btn_task.c **** }
  24:Core/App/btn_task.c **** 
  25:Core/App/btn_task.c **** void Btn_Msg_Send(Button* btn, void* user_data)
  26:Core/App/btn_task.c **** {
  77              		.loc 1 26 1 is_stmt 1 view -0
  78              		.cfi_startproc
  79              		@ args = 0, pretend = 0, frame = 0
  80              		@ frame_needed = 0, uses_anonymous_args = 0
  81              		.loc 1 26 1 is_stmt 0 view .LVU10
  82 0000 08B5     		push	{r3, lr}
  83              	.LCFI1:
  84              		.cfi_def_cfa_offset 8
  85              		.cfi_offset 3, -8
  86              		.cfi_offset 14, -4
  27:Core/App/btn_task.c ****     if (btn->event == BTN_DOUBLE_CLICK) {
ARM GAS  C:\Users\ASUS\AppData\Local\Temp\ccRYIQKw.s 			page 3


  87              		.loc 1 27 5 is_stmt 1 view .LVU11
  88              		.loc 1 27 20 is_stmt 0 view .LVU12
  89 0002 8378     		ldrb	r3, [r0, #2]	@ zero_extendqisi2
  90 0004 03F0F003 		and	r3, r3, #240
  91              		.loc 1 27 8 view .LVU13
  92 0008 402B     		cmp	r3, #64
  93 000a 0AD0     		beq	.L15
  28:Core/App/btn_task.c ****         click = 2;
  29:Core/App/btn_task.c ****     }
  30:Core/App/btn_task.c ****     else if (btn->event == BTN_SINGLE_CLICK) {
  94              		.loc 1 30 10 is_stmt 1 view .LVU14
  95              		.loc 1 30 13 is_stmt 0 view .LVU15
  96 000c 302B     		cmp	r3, #48
  97 000e 0CD0     		beq	.L16
  98              	.L13:
  31:Core/App/btn_task.c ****         click = 1;
  32:Core/App/btn_task.c ****     }
  33:Core/App/btn_task.c ****     osMessageQueuePut(BtnQueueHandle, &click, 0, osWaitForever);
  99              		.loc 1 33 5 is_stmt 1 view .LVU16
 100 0010 4FF0FF33 		mov	r3, #-1
 101 0014 0022     		movs	r2, #0
 102 0016 0749     		ldr	r1, .L17
 103              	.LVL6:
 104              		.loc 1 33 5 is_stmt 0 view .LVU17
 105 0018 0748     		ldr	r0, .L17+4
 106              	.LVL7:
 107              		.loc 1 33 5 view .LVU18
 108 001a 0068     		ldr	r0, [r0]
 109 001c FFF7FEFF 		bl	osMessageQueuePut
 110              	.LVL8:
  34:Core/App/btn_task.c **** }
 111              		.loc 1 34 1 view .LVU19
 112 0020 08BD     		pop	{r3, pc}
 113              	.LVL9:
 114              	.L15:
  28:Core/App/btn_task.c ****         click = 2;
 115              		.loc 1 28 9 is_stmt 1 view .LVU20
  28:Core/App/btn_task.c ****         click = 2;
 116              		.loc 1 28 15 is_stmt 0 view .LVU21
 117 0022 044B     		ldr	r3, .L17
 118 0024 0222     		movs	r2, #2
 119 0026 1A80     		strh	r2, [r3]	@ movhi
 120 0028 F2E7     		b	.L13
 121              	.L16:
  31:Core/App/btn_task.c ****         click = 1;
 122              		.loc 1 31 9 is_stmt 1 view .LVU22
  31:Core/App/btn_task.c ****         click = 1;
 123              		.loc 1 31 15 is_stmt 0 view .LVU23
 124 002a 024B     		ldr	r3, .L17
 125 002c 0122     		movs	r2, #1
 126 002e 1A80     		strh	r2, [r3]	@ movhi
 127 0030 EEE7     		b	.L13
 128              	.L18:
 129 0032 00BF     		.align	2
 130              	.L17:
 131 0034 00000000 		.word	.LANCHOR0
 132 0038 00000000 		.word	BtnQueueHandle
ARM GAS  C:\Users\ASUS\AppData\Local\Temp\ccRYIQKw.s 			page 4


 133              		.cfi_endproc
 134              	.LFE140:
 136              		.section	.text.LED_Toggle,"ax",%progbits
 137              		.align	1
 138              		.global	LED_Toggle
 139              		.syntax unified
 140              		.thumb
 141              		.thumb_func
 143              	LED_Toggle:
 144              	.LVL10:
 145              	.LFB139:
  21:Core/App/btn_task.c ****     HAL_GPIO_TogglePin(GPIOD, GPIO_PIN_4);
 146              		.loc 1 21 1 is_stmt 1 view -0
 147              		.cfi_startproc
 148              		@ args = 0, pretend = 0, frame = 0
 149              		@ frame_needed = 0, uses_anonymous_args = 0
  21:Core/App/btn_task.c ****     HAL_GPIO_TogglePin(GPIOD, GPIO_PIN_4);
 150              		.loc 1 21 1 is_stmt 0 view .LVU25
 151 0000 08B5     		push	{r3, lr}
 152              	.LCFI2:
 153              		.cfi_def_cfa_offset 8
 154              		.cfi_offset 3, -8
 155              		.cfi_offset 14, -4
  22:Core/App/btn_task.c **** }
 156              		.loc 1 22 5 is_stmt 1 view .LVU26
 157 0002 1021     		movs	r1, #16
 158              	.LVL11:
  22:Core/App/btn_task.c **** }
 159              		.loc 1 22 5 is_stmt 0 view .LVU27
 160 0004 0148     		ldr	r0, .L21
 161              	.LVL12:
  22:Core/App/btn_task.c **** }
 162              		.loc 1 22 5 view .LVU28
 163 0006 FFF7FEFF 		bl	HAL_GPIO_TogglePin
 164              	.LVL13:
  23:Core/App/btn_task.c **** 
 165              		.loc 1 23 1 view .LVU29
 166 000a 08BD     		pop	{r3, pc}
 167              	.L22:
 168              		.align	2
 169              	.L21:
 170 000c 000C0240 		.word	1073875968
 171              		.cfi_endproc
 172              	.LFE139:
 174              		.section	.text.StartBtnTask,"ax",%progbits
 175              		.align	1
 176              		.global	StartBtnTask
 177              		.syntax unified
 178              		.thumb
 179              		.thumb_func
 181              	StartBtnTask:
 182              	.LVL14:
 183              	.LFB141:
  35:Core/App/btn_task.c **** 
  36:Core/App/btn_task.c **** void StartBtnTask(void *argument){
 184              		.loc 1 36 34 is_stmt 1 view -0
 185              		.cfi_startproc
ARM GAS  C:\Users\ASUS\AppData\Local\Temp\ccRYIQKw.s 			page 5


 186              		@ Volatile: function does not return.
 187              		@ args = 0, pretend = 0, frame = 0
 188              		@ frame_needed = 0, uses_anonymous_args = 0
 189              		.loc 1 36 34 is_stmt 0 view .LVU31
 190 0000 08B5     		push	{r3, lr}
 191              	.LCFI3:
 192              		.cfi_def_cfa_offset 8
 193              		.cfi_offset 3, -8
 194              		.cfi_offset 14, -4
  37:Core/App/btn_task.c ****     static Button btn1;
 195              		.loc 1 37 5 is_stmt 1 view .LVU32
  38:Core/App/btn_task.c ****     button_init(&btn1, read_button_gpio, 0, 1);
 196              		.loc 1 38 5 view .LVU33
 197 0002 0E4C     		ldr	r4, .L26
 198 0004 0123     		movs	r3, #1
 199 0006 0022     		movs	r2, #0
 200 0008 0D49     		ldr	r1, .L26+4
 201 000a 2046     		mov	r0, r4
 202              	.LVL15:
 203              		.loc 1 38 5 is_stmt 0 view .LVU34
 204 000c FFF7FEFF 		bl	button_init
 205              	.LVL16:
  39:Core/App/btn_task.c ****     button_attach(&btn1, BTN_SINGLE_CLICK, Btn_Msg_Send, NULL);
 206              		.loc 1 39 5 is_stmt 1 view .LVU35
 207 0010 0C4D     		ldr	r5, .L26+8
 208 0012 0023     		movs	r3, #0
 209 0014 2A46     		mov	r2, r5
 210 0016 0321     		movs	r1, #3
 211 0018 2046     		mov	r0, r4
 212 001a FFF7FEFF 		bl	button_attach
 213              	.LVL17:
  40:Core/App/btn_task.c ****     button_attach(&btn1, BTN_DOUBLE_CLICK, Btn_Msg_Send, NULL);
 214              		.loc 1 40 5 view .LVU36
 215 001e 0023     		movs	r3, #0
 216 0020 2A46     		mov	r2, r5
 217 0022 0421     		movs	r1, #4
 218 0024 2046     		mov	r0, r4
 219 0026 FFF7FEFF 		bl	button_attach
 220              	.LVL18:
  41:Core/App/btn_task.c ****     button_start(&btn1);
 221              		.loc 1 41 5 view .LVU37
 222 002a 2046     		mov	r0, r4
 223 002c FFF7FEFF 		bl	button_start
 224              	.LVL19:
 225              	.L24:
  42:Core/App/btn_task.c **** 
  43:Core/App/btn_task.c ****     for(;;){
 226              		.loc 1 43 5 discriminator 1 view .LVU38
  44:Core/App/btn_task.c ****         button_ticks();
 227              		.loc 1 44 9 discriminator 1 view .LVU39
 228 0030 FFF7FEFF 		bl	button_ticks
 229              	.LVL20:
  45:Core/App/btn_task.c ****         osDelay(5);
 230              		.loc 1 45 9 discriminator 1 view .LVU40
 231 0034 0520     		movs	r0, #5
 232 0036 FFF7FEFF 		bl	osDelay
 233              	.LVL21:
ARM GAS  C:\Users\ASUS\AppData\Local\Temp\ccRYIQKw.s 			page 6


  43:Core/App/btn_task.c ****         button_ticks();
 234              		.loc 1 43 10 discriminator 1 view .LVU41
 235 003a F9E7     		b	.L24
 236              	.L27:
 237              		.align	2
 238              	.L26:
 239 003c 00000000 		.word	.LANCHOR1
 240 0040 00000000 		.word	read_button_gpio
 241 0044 00000000 		.word	Btn_Msg_Send
 242              		.cfi_endproc
 243              	.LFE141:
 245              		.global	click
 246              		.section	.bss.btn1.0,"aw",%nobits
 247              		.align	2
 248              		.set	.LANCHOR1,. + 0
 251              	btn1.0:
 252 0000 00000000 		.space	48
 252      00000000 
 252      00000000 
 252      00000000 
 252      00000000 
 253              		.section	.bss.click,"aw",%nobits
 254              		.align	1
 255              		.set	.LANCHOR0,. + 0
 258              	click:
 259 0000 0000     		.space	2
 260              		.text
 261              	.Letext0:
 262              		.file 2 "d:\\chain\\gcc-arm-none-eabi-10.3-2021.10-win32\\gcc-arm-none-eabi-10.3-2021.10\\arm-none
 263              		.file 3 "d:\\chain\\gcc-arm-none-eabi-10.3-2021.10-win32\\gcc-arm-none-eabi-10.3-2021.10\\arm-none
 264              		.file 4 "Middlewares/Third_Party/FreeRTOS/Source/CMSIS_RTOS_V2/cmsis_os2.h"
 265              		.file 5 "Drivers/CMSIS/Device/ST/STM32F4xx/Include/stm32f427xx.h"
 266              		.file 6 "Core/Inc/main.h"
 267              		.file 7 "Core/Bsp/multi_button.h"
 268              		.file 8 "Drivers/STM32F4xx_HAL_Driver/Inc/stm32f4xx_hal_gpio.h"
ARM GAS  C:\Users\ASUS\AppData\Local\Temp\ccRYIQKw.s 			page 7

