ARM GAS  C:\Users\ASUS\AppData\Local\Temp\cc2erBjN.s 			page 1


   1              		.cpu cortex-m4
   2              		.arch armv7e-m
   3              		.fpu fpv4-sp-d16
   4              		.eabi_attribute 27, 1
   5              		.eabi_attribute 28, 1
   6              		.eabi_attribute 20, 1
   7              		.eabi_attribute 21, 1
   8              		.eabi_attribute 23, 3
   9              		.eabi_attribute 24, 1
  10              		.eabi_attribute 25, 1
  11              		.eabi_attribute 26, 1
  12              		.eabi_attribute 30, 1
  13              		.eabi_attribute 34, 1
  14              		.eabi_attribute 18, 4
  15              		.file	"freertos.c"
  16              		.text
  17              	.Ltext0:
  18              		.cfi_sections	.debug_frame
  19              		.section	.text.StartBtnTask,"ax",%progbits
  20              		.align	1
  21              		.weak	StartBtnTask
  22              		.syntax unified
  23              		.thumb
  24              		.thumb_func
  26              	StartBtnTask:
  27              	.LFB139:
  28              		.file 1 "Core/Src/freertos.c"
   1:Core/Src/freertos.c **** /* USER CODE BEGIN Header */
   2:Core/Src/freertos.c **** /**
   3:Core/Src/freertos.c ****   ******************************************************************************
   4:Core/Src/freertos.c ****   * File Name          : freertos.c
   5:Core/Src/freertos.c ****   * Description        : Code for freertos applications
   6:Core/Src/freertos.c ****   ******************************************************************************
   7:Core/Src/freertos.c ****   * @attention
   8:Core/Src/freertos.c ****   *
   9:Core/Src/freertos.c ****   * Copyright (c) 2026 STMicroelectronics.
  10:Core/Src/freertos.c ****   * All rights reserved.
  11:Core/Src/freertos.c ****   *
  12:Core/Src/freertos.c ****   * This software is licensed under terms that can be found in the LICENSE file
  13:Core/Src/freertos.c ****   * in the root directory of this software component.
  14:Core/Src/freertos.c ****   * If no LICENSE file comes with this software, it is provided AS-IS.
  15:Core/Src/freertos.c ****   *
  16:Core/Src/freertos.c ****   ******************************************************************************
  17:Core/Src/freertos.c ****   */
  18:Core/Src/freertos.c **** /* USER CODE END Header */
  19:Core/Src/freertos.c **** 
  20:Core/Src/freertos.c **** /* Includes ------------------------------------------------------------------*/
  21:Core/Src/freertos.c **** #include "FreeRTOS.h"
  22:Core/Src/freertos.c **** #include "task.h"
  23:Core/Src/freertos.c **** #include "main.h"
  24:Core/Src/freertos.c **** #include "cmsis_os.h"
  25:Core/Src/freertos.c **** 
  26:Core/Src/freertos.c **** /* Private includes ----------------------------------------------------------*/
  27:Core/Src/freertos.c **** /* USER CODE BEGIN Includes */
  28:Core/Src/freertos.c **** 
  29:Core/Src/freertos.c **** /* USER CODE END Includes */
  30:Core/Src/freertos.c **** 
ARM GAS  C:\Users\ASUS\AppData\Local\Temp\cc2erBjN.s 			page 2


  31:Core/Src/freertos.c **** /* Private typedef -----------------------------------------------------------*/
  32:Core/Src/freertos.c **** /* USER CODE BEGIN PTD */
  33:Core/Src/freertos.c **** 
  34:Core/Src/freertos.c **** /* USER CODE END PTD */
  35:Core/Src/freertos.c **** 
  36:Core/Src/freertos.c **** /* Private define ------------------------------------------------------------*/
  37:Core/Src/freertos.c **** /* USER CODE BEGIN PD */
  38:Core/Src/freertos.c **** 
  39:Core/Src/freertos.c **** /* USER CODE END PD */
  40:Core/Src/freertos.c **** 
  41:Core/Src/freertos.c **** /* Private macro -------------------------------------------------------------*/
  42:Core/Src/freertos.c **** /* USER CODE BEGIN PM */
  43:Core/Src/freertos.c **** 
  44:Core/Src/freertos.c **** /* USER CODE END PM */
  45:Core/Src/freertos.c **** 
  46:Core/Src/freertos.c **** /* Private variables ---------------------------------------------------------*/
  47:Core/Src/freertos.c **** /* USER CODE BEGIN Variables */
  48:Core/Src/freertos.c **** 
  49:Core/Src/freertos.c **** /* USER CODE END Variables */
  50:Core/Src/freertos.c **** /* Definitions for BtnTask */
  51:Core/Src/freertos.c **** osThreadId_t BtnTaskHandle;
  52:Core/Src/freertos.c **** const osThreadAttr_t BtnTask_attributes = {
  53:Core/Src/freertos.c ****   .name = "BtnTask",
  54:Core/Src/freertos.c ****   .stack_size = 128 * 4,
  55:Core/Src/freertos.c ****   .priority = (osPriority_t) osPriorityNormal,
  56:Core/Src/freertos.c **** };
  57:Core/Src/freertos.c **** /* Definitions for MotorTask */
  58:Core/Src/freertos.c **** osThreadId_t MotorTaskHandle;
  59:Core/Src/freertos.c **** const osThreadAttr_t MotorTask_attributes = {
  60:Core/Src/freertos.c ****   .name = "MotorTask",
  61:Core/Src/freertos.c ****   .stack_size = 128 * 4,
  62:Core/Src/freertos.c ****   .priority = (osPriority_t) osPriorityNormal,
  63:Core/Src/freertos.c **** };
  64:Core/Src/freertos.c **** /* Definitions for BtnQueue */
  65:Core/Src/freertos.c **** osMessageQueueId_t BtnQueueHandle;
  66:Core/Src/freertos.c **** const osMessageQueueAttr_t BtnQueue_attributes = {
  67:Core/Src/freertos.c ****   .name = "BtnQueue"
  68:Core/Src/freertos.c **** };
  69:Core/Src/freertos.c **** 
  70:Core/Src/freertos.c **** /* Private function prototypes -----------------------------------------------*/
  71:Core/Src/freertos.c **** /* USER CODE BEGIN FunctionPrototypes */
  72:Core/Src/freertos.c **** 
  73:Core/Src/freertos.c **** /* USER CODE END FunctionPrototypes */
  74:Core/Src/freertos.c **** 
  75:Core/Src/freertos.c **** void StartBtnTask(void *argument);
  76:Core/Src/freertos.c **** extern void StartMotorTask(void *argument);
  77:Core/Src/freertos.c **** 
  78:Core/Src/freertos.c **** void MX_FREERTOS_Init(void); /* (MISRA C 2004 rule 8.1) */
  79:Core/Src/freertos.c **** 
  80:Core/Src/freertos.c **** /**
  81:Core/Src/freertos.c ****   * @brief  FreeRTOS initialization
  82:Core/Src/freertos.c ****   * @param  None
  83:Core/Src/freertos.c ****   * @retval None
  84:Core/Src/freertos.c ****   */
  85:Core/Src/freertos.c **** void MX_FREERTOS_Init(void) {
  86:Core/Src/freertos.c ****   /* USER CODE BEGIN Init */
  87:Core/Src/freertos.c **** 
ARM GAS  C:\Users\ASUS\AppData\Local\Temp\cc2erBjN.s 			page 3


  88:Core/Src/freertos.c ****   /* USER CODE END Init */
  89:Core/Src/freertos.c **** 
  90:Core/Src/freertos.c ****   /* USER CODE BEGIN RTOS_MUTEX */
  91:Core/Src/freertos.c ****   /* add mutexes, ... */
  92:Core/Src/freertos.c ****   /* USER CODE END RTOS_MUTEX */
  93:Core/Src/freertos.c **** 
  94:Core/Src/freertos.c ****   /* USER CODE BEGIN RTOS_SEMAPHORES */
  95:Core/Src/freertos.c ****   /* add semaphores, ... */
  96:Core/Src/freertos.c ****   /* USER CODE END RTOS_SEMAPHORES */
  97:Core/Src/freertos.c **** 
  98:Core/Src/freertos.c ****   /* USER CODE BEGIN RTOS_TIMERS */
  99:Core/Src/freertos.c ****   /* start timers, add new ones, ... */
 100:Core/Src/freertos.c ****   /* USER CODE END RTOS_TIMERS */
 101:Core/Src/freertos.c **** 
 102:Core/Src/freertos.c ****   /* Create the queue(s) */
 103:Core/Src/freertos.c ****   /* creation of BtnQueue */
 104:Core/Src/freertos.c ****   BtnQueueHandle = osMessageQueueNew (16, sizeof(uint16_t), &BtnQueue_attributes);
 105:Core/Src/freertos.c **** 
 106:Core/Src/freertos.c ****   /* USER CODE BEGIN RTOS_QUEUES */
 107:Core/Src/freertos.c ****   /* add queues, ... */
 108:Core/Src/freertos.c ****   /* USER CODE END RTOS_QUEUES */
 109:Core/Src/freertos.c **** 
 110:Core/Src/freertos.c ****   /* Create the thread(s) */
 111:Core/Src/freertos.c ****   /* creation of BtnTask */
 112:Core/Src/freertos.c ****   BtnTaskHandle = osThreadNew(StartBtnTask, NULL, &BtnTask_attributes);
 113:Core/Src/freertos.c **** 
 114:Core/Src/freertos.c ****   /* creation of MotorTask */
 115:Core/Src/freertos.c ****   MotorTaskHandle = osThreadNew(StartMotorTask, NULL, &MotorTask_attributes);
 116:Core/Src/freertos.c **** 
 117:Core/Src/freertos.c ****   /* USER CODE BEGIN RTOS_THREADS */
 118:Core/Src/freertos.c ****   /* add threads, ... */
 119:Core/Src/freertos.c ****   /* USER CODE END RTOS_THREADS */
 120:Core/Src/freertos.c **** 
 121:Core/Src/freertos.c ****   /* USER CODE BEGIN RTOS_EVENTS */
 122:Core/Src/freertos.c ****   /* add events, ... */
 123:Core/Src/freertos.c ****   /* USER CODE END RTOS_EVENTS */
 124:Core/Src/freertos.c **** 
 125:Core/Src/freertos.c **** }
 126:Core/Src/freertos.c **** 
 127:Core/Src/freertos.c **** /* USER CODE BEGIN Header_StartBtnTask */
 128:Core/Src/freertos.c **** /**
 129:Core/Src/freertos.c ****   * @brief  Function implementing the BtnTask thread.
 130:Core/Src/freertos.c ****   * @param  argument: Not used
 131:Core/Src/freertos.c ****   * @retval None
 132:Core/Src/freertos.c ****   */
 133:Core/Src/freertos.c **** /* USER CODE END Header_StartBtnTask */
 134:Core/Src/freertos.c **** __weak void StartBtnTask(void *argument)
 135:Core/Src/freertos.c **** {
  29              		.loc 1 135 1 view -0
  30              		.cfi_startproc
  31              		@ args = 0, pretend = 0, frame = 0
  32              		@ frame_needed = 0, uses_anonymous_args = 0
  33              	.LVL0:
  34              		.loc 1 135 1 is_stmt 0 view .LVU1
  35 0000 08B5     		push	{r3, lr}
  36              	.LCFI0:
  37              		.cfi_def_cfa_offset 8
ARM GAS  C:\Users\ASUS\AppData\Local\Temp\cc2erBjN.s 			page 4


  38              		.cfi_offset 3, -8
  39              		.cfi_offset 14, -4
  40              	.LVL1:
  41              	.L2:
 136:Core/Src/freertos.c ****   /* USER CODE BEGIN StartBtnTask */
 137:Core/Src/freertos.c ****   /* Infinite loop */
 138:Core/Src/freertos.c ****   for(;;)
  42              		.loc 1 138 3 is_stmt 1 discriminator 1 view .LVU2
 139:Core/Src/freertos.c ****   {
 140:Core/Src/freertos.c ****     osDelay(1);
  43              		.loc 1 140 5 discriminator 1 view .LVU3
  44 0002 0120     		movs	r0, #1
  45 0004 FFF7FEFF 		bl	osDelay
  46              	.LVL2:
 138:Core/Src/freertos.c ****   {
  47              		.loc 1 138 8 discriminator 1 view .LVU4
  48 0008 FBE7     		b	.L2
  49              		.cfi_endproc
  50              	.LFE139:
  52              		.section	.text.MX_FREERTOS_Init,"ax",%progbits
  53              		.align	1
  54              		.global	MX_FREERTOS_Init
  55              		.syntax unified
  56              		.thumb
  57              		.thumb_func
  59              	MX_FREERTOS_Init:
  60              	.LFB138:
  85:Core/Src/freertos.c ****   /* USER CODE BEGIN Init */
  61              		.loc 1 85 29 view -0
  62              		.cfi_startproc
  63              		@ args = 0, pretend = 0, frame = 0
  64              		@ frame_needed = 0, uses_anonymous_args = 0
  65 0000 08B5     		push	{r3, lr}
  66              	.LCFI1:
  67              		.cfi_def_cfa_offset 8
  68              		.cfi_offset 3, -8
  69              		.cfi_offset 14, -4
 104:Core/Src/freertos.c **** 
  70              		.loc 1 104 3 view .LVU6
 104:Core/Src/freertos.c **** 
  71              		.loc 1 104 20 is_stmt 0 view .LVU7
  72 0002 0B4A     		ldr	r2, .L6
  73 0004 0221     		movs	r1, #2
  74 0006 1020     		movs	r0, #16
  75 0008 FFF7FEFF 		bl	osMessageQueueNew
  76              	.LVL3:
 104:Core/Src/freertos.c **** 
  77              		.loc 1 104 18 view .LVU8
  78 000c 094B     		ldr	r3, .L6+4
  79 000e 1860     		str	r0, [r3]
 112:Core/Src/freertos.c **** 
  80              		.loc 1 112 3 is_stmt 1 view .LVU9
 112:Core/Src/freertos.c **** 
  81              		.loc 1 112 19 is_stmt 0 view .LVU10
  82 0010 094A     		ldr	r2, .L6+8
  83 0012 0021     		movs	r1, #0
  84 0014 0948     		ldr	r0, .L6+12
ARM GAS  C:\Users\ASUS\AppData\Local\Temp\cc2erBjN.s 			page 5


  85 0016 FFF7FEFF 		bl	osThreadNew
  86              	.LVL4:
 112:Core/Src/freertos.c **** 
  87              		.loc 1 112 17 view .LVU11
  88 001a 094B     		ldr	r3, .L6+16
  89 001c 1860     		str	r0, [r3]
 115:Core/Src/freertos.c **** 
  90              		.loc 1 115 3 is_stmt 1 view .LVU12
 115:Core/Src/freertos.c **** 
  91              		.loc 1 115 21 is_stmt 0 view .LVU13
  92 001e 094A     		ldr	r2, .L6+20
  93 0020 0021     		movs	r1, #0
  94 0022 0948     		ldr	r0, .L6+24
  95 0024 FFF7FEFF 		bl	osThreadNew
  96              	.LVL5:
 115:Core/Src/freertos.c **** 
  97              		.loc 1 115 19 view .LVU14
  98 0028 084B     		ldr	r3, .L6+28
  99 002a 1860     		str	r0, [r3]
 125:Core/Src/freertos.c **** 
 100              		.loc 1 125 1 view .LVU15
 101 002c 08BD     		pop	{r3, pc}
 102              	.L7:
 103 002e 00BF     		.align	2
 104              	.L6:
 105 0030 00000000 		.word	.LANCHOR0
 106 0034 00000000 		.word	.LANCHOR1
 107 0038 00000000 		.word	.LANCHOR2
 108 003c 00000000 		.word	StartBtnTask
 109 0040 00000000 		.word	.LANCHOR3
 110 0044 00000000 		.word	.LANCHOR4
 111 0048 00000000 		.word	StartMotorTask
 112 004c 00000000 		.word	.LANCHOR5
 113              		.cfi_endproc
 114              	.LFE138:
 116              		.global	BtnQueue_attributes
 117              		.section	.rodata.str1.4,"aMS",%progbits,1
 118              		.align	2
 119              	.LC0:
 120 0000 42746E51 		.ascii	"BtnQueue\000"
 120      75657565 
 120      00
 121              		.global	BtnQueueHandle
 122              		.global	MotorTask_attributes
 123 0009 000000   		.align	2
 124              	.LC1:
 125 000c 4D6F746F 		.ascii	"MotorTask\000"
 125      72546173 
 125      6B00
 126              		.global	MotorTaskHandle
 127              		.global	BtnTask_attributes
 128 0016 0000     		.align	2
 129              	.LC2:
 130 0018 42746E54 		.ascii	"BtnTask\000"
 130      61736B00 
 131              		.global	BtnTaskHandle
 132              		.section	.bss.BtnQueueHandle,"aw",%nobits
ARM GAS  C:\Users\ASUS\AppData\Local\Temp\cc2erBjN.s 			page 6


 133              		.align	2
 134              		.set	.LANCHOR1,. + 0
 137              	BtnQueueHandle:
 138 0000 00000000 		.space	4
 139              		.section	.bss.BtnTaskHandle,"aw",%nobits
 140              		.align	2
 141              		.set	.LANCHOR3,. + 0
 144              	BtnTaskHandle:
 145 0000 00000000 		.space	4
 146              		.section	.bss.MotorTaskHandle,"aw",%nobits
 147              		.align	2
 148              		.set	.LANCHOR5,. + 0
 151              	MotorTaskHandle:
 152 0000 00000000 		.space	4
 153              		.section	.rodata.BtnQueue_attributes,"a"
 154              		.align	2
 155              		.set	.LANCHOR0,. + 0
 158              	BtnQueue_attributes:
 159 0000 00000000 		.word	.LC0
 160 0004 00000000 		.space	20
 160      00000000 
 160      00000000 
 160      00000000 
 160      00000000 
 161              		.section	.rodata.BtnTask_attributes,"a"
 162              		.align	2
 163              		.set	.LANCHOR2,. + 0
 166              	BtnTask_attributes:
 167 0000 18000000 		.word	.LC2
 168 0004 00000000 		.space	16
 168      00000000 
 168      00000000 
 168      00000000 
 169 0014 00020000 		.word	512
 170 0018 18000000 		.word	24
 171 001c 00000000 		.space	8
 171      00000000 
 172              		.section	.rodata.MotorTask_attributes,"a"
 173              		.align	2
 174              		.set	.LANCHOR4,. + 0
 177              	MotorTask_attributes:
 178 0000 0C000000 		.word	.LC1
 179 0004 00000000 		.space	16
 179      00000000 
 179      00000000 
 179      00000000 
 180 0014 00020000 		.word	512
 181 0018 18000000 		.word	24
 182 001c 00000000 		.space	8
 182      00000000 
 183              		.text
 184              	.Letext0:
 185              		.file 2 "d:\\chain\\gcc-arm-none-eabi-10.3-2021.10-win32\\gcc-arm-none-eabi-10.3-2021.10\\arm-none
 186              		.file 3 "d:\\chain\\gcc-arm-none-eabi-10.3-2021.10-win32\\gcc-arm-none-eabi-10.3-2021.10\\arm-none
 187              		.file 4 "Middlewares/Third_Party/FreeRTOS/Source/CMSIS_RTOS_V2/cmsis_os2.h"
 188              		.file 5 "Core/Inc/main.h"
ARM GAS  C:\Users\ASUS\AppData\Local\Temp\cc2erBjN.s 			page 7

