ARM GAS  C:\Users\ASUS\AppData\Local\Temp\ccAzhzds.s 			page 1


   1              		.cpu cortex-m4
   2              		.arch armv7e-m
   3              		.fpu fpv4-sp-d16
   4              		.eabi_attribute 27, 1
   5              		.eabi_attribute 28, 1
   6              		.eabi_attribute 20, 1
   7              		.eabi_attribute 21, 1
   8              		.eabi_attribute 23, 3
   9              		.eabi_attribute 24, 1
  10              		.eabi_attribute 25, 1
  11              		.eabi_attribute 26, 1
  12              		.eabi_attribute 30, 1
  13              		.eabi_attribute 34, 1
  14              		.eabi_attribute 18, 4
  15              		.file	"motor_task.c"
  16              		.text
  17              	.Ltext0:
  18              		.cfi_sections	.debug_frame
  19              		.section	.text.Step_Motor_Vel_Set,"ax",%progbits
  20              		.align	1
  21              		.global	Step_Motor_Vel_Set
  22              		.syntax unified
  23              		.thumb
  24              		.thumb_func
  26              	Step_Motor_Vel_Set:
  27              	.LVL0:
  28              	.LFB138:
  29              		.file 1 "Core/App/motor_task.c"
   1:Core/App/motor_task.c **** #include "cmsis_os.h"
   2:Core/App/motor_task.c **** #include "main.h"
   3:Core/App/motor_task.c **** #include "Emm_V5.h"
   4:Core/App/motor_task.c **** #include "stdbool.h"
   5:Core/App/motor_task.c **** 
   6:Core/App/motor_task.c **** typedef struct MOTOR{
   7:Core/App/motor_task.c ****     uint8_t addr;
   8:Core/App/motor_task.c ****     uint8_t dir[2]; //正转，反转
   9:Core/App/motor_task.c ****     double vel;
  10:Core/App/motor_task.c ****     double acc;
  11:Core/App/motor_task.c ****     double round;
  12:Core/App/motor_task.c ****     bool snF;
  13:Core/App/motor_task.c ****     bool svF;
  14:Core/App/motor_task.c **** } MOTOR;
  15:Core/App/motor_task.c **** 
  16:Core/App/motor_task.c **** MOTOR motor[2] = {
  17:Core/App/motor_task.c ****     // {0x01, {0x01, 0x00}, 2000.0, 200.0, 1, true, true}, 
  18:Core/App/motor_task.c ****     // {0x02, {0x00, 0x01}, 2000.0, 200.0, 1, true, true} 
  19:Core/App/motor_task.c ****     {0x01, {0x01, 0x00}, 2000.0, 200.0, 0.05, false, true}, 
  20:Core/App/motor_task.c ****     {0x02, {0x00, 0x01}, 200.0, 200.0, 1.0, false, true}  
  21:Core/App/motor_task.c **** };
  22:Core/App/motor_task.c **** 
  23:Core/App/motor_task.c **** void Step_Motor_Vel_Set(float x_rpm, float y_rpm) {
  30              		.loc 1 23 51 view -0
  31              		.cfi_startproc
  32              		@ args = 0, pretend = 0, frame = 0
  33              		@ frame_needed = 0, uses_anonymous_args = 0
  34              		.loc 1 23 51 is_stmt 0 view .LVU1
  35 0000 08B5     		push	{r3, lr}
ARM GAS  C:\Users\ASUS\AppData\Local\Temp\ccAzhzds.s 			page 2


  36              	.LCFI0:
  37              		.cfi_def_cfa_offset 8
  38              		.cfi_offset 3, -8
  39              		.cfi_offset 14, -4
  24:Core/App/motor_task.c ****     
  25:Core/App/motor_task.c ****     osDelay(10);
  40              		.loc 1 25 5 is_stmt 1 view .LVU2
  41 0002 0A20     		movs	r0, #10
  42 0004 FFF7FEFF 		bl	osDelay
  43              	.LVL1:
  26:Core/App/motor_task.c **** }
  44              		.loc 1 26 1 is_stmt 0 view .LVU3
  45 0008 08BD     		pop	{r3, pc}
  46              		.cfi_endproc
  47              	.LFE138:
  49              		.section	.text.StartMotorTask,"ax",%progbits
  50              		.align	1
  51              		.global	StartMotorTask
  52              		.syntax unified
  53              		.thumb
  54              		.thumb_func
  56              	StartMotorTask:
  57              	.LVL2:
  58              	.LFB139:
  27:Core/App/motor_task.c **** 
  28:Core/App/motor_task.c **** 
  29:Core/App/motor_task.c **** 
  30:Core/App/motor_task.c **** void StartMotorTask(void *argument){
  59              		.loc 1 30 36 is_stmt 1 view -0
  60              		.cfi_startproc
  61              		@ Volatile: function does not return.
  62              		@ args = 0, pretend = 0, frame = 0
  63              		@ frame_needed = 0, uses_anonymous_args = 0
  64              		.loc 1 30 36 is_stmt 0 view .LVU5
  65 0000 08B5     		push	{r3, lr}
  66              	.LCFI1:
  67              		.cfi_def_cfa_offset 8
  68              		.cfi_offset 3, -8
  69              		.cfi_offset 14, -4
  31:Core/App/motor_task.c ****     Emm_V5_En_Control(motor[0].addr, true, motor[0].snF);
  70              		.loc 1 31 5 is_stmt 1 view .LVU6
  71 0002 134C     		ldr	r4, .L7
  72 0004 94F82020 		ldrb	r2, [r4, #32]	@ zero_extendqisi2
  73 0008 0121     		movs	r1, #1
  74 000a 2078     		ldrb	r0, [r4]	@ zero_extendqisi2
  75              	.LVL3:
  76              		.loc 1 31 5 is_stmt 0 view .LVU7
  77 000c FFF7FEFF 		bl	Emm_V5_En_Control
  78              	.LVL4:
  32:Core/App/motor_task.c ****     osDelay(10);
  79              		.loc 1 32 5 is_stmt 1 view .LVU8
  80 0010 0A20     		movs	r0, #10
  81 0012 FFF7FEFF 		bl	osDelay
  82              	.LVL5:
  33:Core/App/motor_task.c ****     Emm_V5_En_Control(motor[1].addr, true, motor[1].snF);
  83              		.loc 1 33 5 view .LVU9
  84 0016 94F84820 		ldrb	r2, [r4, #72]	@ zero_extendqisi2
ARM GAS  C:\Users\ASUS\AppData\Local\Temp\ccAzhzds.s 			page 3


  85 001a 0121     		movs	r1, #1
  86 001c 94F82800 		ldrb	r0, [r4, #40]	@ zero_extendqisi2
  87 0020 FFF7FEFF 		bl	Emm_V5_En_Control
  88              	.LVL6:
  34:Core/App/motor_task.c ****     osDelay(10);
  89              		.loc 1 34 5 view .LVU10
  90 0024 0A20     		movs	r0, #10
  91 0026 FFF7FEFF 		bl	osDelay
  92              	.LVL7:
  93              	.L4:
  35:Core/App/motor_task.c **** 
  36:Core/App/motor_task.c ****     // Emm_V5_Origin_Set_O(motor[0].addr, motor[0].svF);
  37:Core/App/motor_task.c ****     // osDelay(10);
  38:Core/App/motor_task.c ****     // Emm_V5_Origin_Set_O(motor[1].addr, motor[1].svF);
  39:Core/App/motor_task.c ****     // osDelay(10);
  40:Core/App/motor_task.c **** 
  41:Core/App/motor_task.c ****     for(;;){
  94              		.loc 1 41 5 view .LVU11
  42:Core/App/motor_task.c ****         osMessageQueueGet(BtnQueueHandle, &click, 0, osWaitForever);
  95              		.loc 1 42 9 view .LVU12
  96 002a 0A4C     		ldr	r4, .L7+4
  97 002c 4FF0FF33 		mov	r3, #-1
  98 0030 0022     		movs	r2, #0
  99 0032 2146     		mov	r1, r4
 100 0034 0848     		ldr	r0, .L7+8
 101 0036 0068     		ldr	r0, [r0]
 102 0038 FFF7FEFF 		bl	osMessageQueueGet
 103              	.LVL8:
  43:Core/App/motor_task.c ****         if (click == 1) {
 104              		.loc 1 43 9 view .LVU13
 105              		.loc 1 43 19 is_stmt 0 view .LVU14
 106 003c 2388     		ldrh	r3, [r4]
 107              		.loc 1 43 12 view .LVU15
 108 003e 012B     		cmp	r3, #1
 109 0040 F3D0     		beq	.L4
  44:Core/App/motor_task.c ****             // Emm_V5_Pos_Control(motor[0].addr, motor[0].dir[0], motor[0].vel, motor[0].acc, 3200*
  45:Core/App/motor_task.c ****             // osDelay(10);
  46:Core/App/motor_task.c ****             // Emm_V5_Pos_Control(motor[1].addr, motor[1].dir[1], motor[1].vel, motor[1].acc, 3200*
  47:Core/App/motor_task.c ****             // osDelay(10);
  48:Core/App/motor_task.c ****             // Emm_V5_Synchronous_motion(0x00);
  49:Core/App/motor_task.c **** 
  50:Core/App/motor_task.c ****             // Emm_V5_Pos_Control(motor[0].addr, motor[0].dir[0], motor[0].vel, motor[0].acc, 3200*
  51:Core/App/motor_task.c ****             // osDelay(1000);
  52:Core/App/motor_task.c ****             // Emm_V5_Pos_Control(motor[1].addr, motor[1].dir[1], motor[1].vel, motor[1].acc, 3200*
  53:Core/App/motor_task.c ****             // osDelay(1000);
  54:Core/App/motor_task.c ****             // Emm_V5_Pos_Control(motor[0].addr, motor[0].dir[1], motor[0].vel, motor[0].acc, 3200*
  55:Core/App/motor_task.c ****             // osDelay(1000);
  56:Core/App/motor_task.c ****             // Emm_V5_Pos_Control(motor[1].addr, motor[1].dir[0], motor[1].vel, motor[1].acc, 3200*
  57:Core/App/motor_task.c ****             // osDelay(1000);
  58:Core/App/motor_task.c **** 
  59:Core/App/motor_task.c ****             // Emm_V5_Synchronous_motion(0x00);
  60:Core/App/motor_task.c **** 
  61:Core/App/motor_task.c **** 
  62:Core/App/motor_task.c **** 
  63:Core/App/motor_task.c **** 
  64:Core/App/motor_task.c **** 
  65:Core/App/motor_task.c ****         }
ARM GAS  C:\Users\ASUS\AppData\Local\Temp\ccAzhzds.s 			page 4


  66:Core/App/motor_task.c ****         else if(click == 2)
 110              		.loc 1 66 14 is_stmt 1 view .LVU16
 111              		.loc 1 66 16 is_stmt 0 view .LVU17
 112 0042 022B     		cmp	r3, #2
 113 0044 F1D1     		bne	.L4
  67:Core/App/motor_task.c ****         {
  68:Core/App/motor_task.c ****             // Emm_V5_Pos_Control(motor[0].addr, motor[0].dir[1], motor[0].vel, motor[0].acc, 3200*
  69:Core/App/motor_task.c ****             // osDelay(10);
  70:Core/App/motor_task.c ****             // Emm_V5_Pos_Control(motor[1].addr, motor[1].dir[0], motor[1].vel, motor[1].acc, 3200*
  71:Core/App/motor_task.c ****             // osDelay(10);
  72:Core/App/motor_task.c ****             // Emm_V5_Synchronous_motion(0x00);
  73:Core/App/motor_task.c **** 
  74:Core/App/motor_task.c ****             // Emm_V5_Origin_Trigger_Return(motor[0].addr, 0x00, motor[0].snF);
  75:Core/App/motor_task.c ****             // osDelay(10);
  76:Core/App/motor_task.c ****             // Emm_V5_Origin_Trigger_Return(motor[1].addr, 0x00, motor[1].snF);
  77:Core/App/motor_task.c ****             // osDelay(10);
  78:Core/App/motor_task.c ****             // Emm_V5_Synchronous_motion(0x00);
  79:Core/App/motor_task.c **** 
  80:Core/App/motor_task.c ****             osDelay(10);
 114              		.loc 1 80 13 is_stmt 1 view .LVU18
 115 0046 0A20     		movs	r0, #10
 116 0048 FFF7FEFF 		bl	osDelay
 117              	.LVL9:
 118 004c EDE7     		b	.L4
 119              	.L8:
 120 004e 00BF     		.align	2
 121              	.L7:
 122 0050 00000000 		.word	.LANCHOR0
 123 0054 00000000 		.word	click
 124 0058 00000000 		.word	BtnQueueHandle
 125              		.cfi_endproc
 126              	.LFE139:
 128              		.global	motor
 129              		.section	.data.motor,"aw"
 130              		.align	3
 131              		.set	.LANCHOR0,. + 0
 134              	motor:
 135 0000 01       		.byte	1
 136 0001 0100     		.ascii	"\001\000"
 137 0003 00000000 		.space	5
 137      00
 138 0008 00000000 		.word	0
 139 000c 00409F40 		.word	1084178432
 140 0010 00000000 		.word	0
 141 0014 00006940 		.word	1080623104
 142 0018 9A999999 		.word	-1717986918
 143 001c 9999A93F 		.word	1068079513
 144 0020 00       		.byte	0
 145 0021 01       		.byte	1
 146 0022 00000000 		.space	6
 146      0000
 147 0028 02       		.byte	2
 148 0029 0001     		.ascii	"\000\001"
 149 002b 00000000 		.space	5
 149      00
 150 0030 00000000 		.word	0
 151 0034 00006940 		.word	1080623104
ARM GAS  C:\Users\ASUS\AppData\Local\Temp\ccAzhzds.s 			page 5


 152 0038 00000000 		.word	0
 153 003c 00006940 		.word	1080623104
 154 0040 00000000 		.word	0
 155 0044 0000F03F 		.word	1072693248
 156 0048 00       		.byte	0
 157 0049 01       		.byte	1
 158 004a 00000000 		.space	6
 158      0000
 159              		.text
 160              	.Letext0:
 161              		.file 2 "d:\\chain\\gcc-arm-none-eabi-10.3-2021.10-win32\\gcc-arm-none-eabi-10.3-2021.10\\arm-none
 162              		.file 3 "d:\\chain\\gcc-arm-none-eabi-10.3-2021.10-win32\\gcc-arm-none-eabi-10.3-2021.10\\arm-none
 163              		.file 4 "Middlewares/Third_Party/FreeRTOS/Source/CMSIS_RTOS_V2/cmsis_os2.h"
 164              		.file 5 "Core/Inc/main.h"
 165              		.file 6 "Core/Bsp/Emm_V5.h"
ARM GAS  C:\Users\ASUS\AppData\Local\Temp\ccAzhzds.s 			page 6

