ARM GAS  C:\Users\ASUS\AppData\Local\Temp\ccz5ObUH.s 			page 1


   1              		.cpu cortex-m4
   2              		.arch armv7e-m
   3              		.fpu fpv4-sp-d16
   4              		.eabi_attribute 27, 1
   5              		.eabi_attribute 28, 1
   6              		.eabi_attribute 20, 1
   7              		.eabi_attribute 21, 1
   8              		.eabi_attribute 23, 3
   9              		.eabi_attribute 24, 1
  10              		.eabi_attribute 25, 1
  11              		.eabi_attribute 26, 1
  12              		.eabi_attribute 30, 1
  13              		.eabi_attribute 34, 1
  14              		.eabi_attribute 18, 4
  15              		.file	"multi_button.c"
  16              		.text
  17              	.Ltext0:
  18              		.cfi_sections	.debug_frame
  19              		.section	.text.button_handler,"ax",%progbits
  20              		.align	1
  21              		.syntax unified
  22              		.thumb
  23              		.thumb_func
  25              	button_handler:
  26              	.LVL0:
  27              	.LFB8:
  28              		.file 1 "Core/BSP/multi_button.c"
   1:Core/BSP/multi_button.c **** /*
   2:Core/BSP/multi_button.c ****  * Copyright (c) 2016 Zibin Zheng <znbin@qq.com>
   3:Core/BSP/multi_button.c ****  * All rights reserved
   4:Core/BSP/multi_button.c ****  */
   5:Core/BSP/multi_button.c **** 
   6:Core/BSP/multi_button.c **** #include "multi_button.h"
   7:Core/BSP/multi_button.c **** 
   8:Core/BSP/multi_button.c **** // Macro for callback execution with null check, passes user_data
   9:Core/BSP/multi_button.c **** #define EVENT_CB(ev)   do { if (handle->cb[ev]) handle->cb[ev](handle, handle->user_data); } while(
  10:Core/BSP/multi_button.c **** 
  11:Core/BSP/multi_button.c **** // Button handle list head
  12:Core/BSP/multi_button.c **** static Button* head_handle = NULL;
  13:Core/BSP/multi_button.c **** 
  14:Core/BSP/multi_button.c **** // Forward declarations
  15:Core/BSP/multi_button.c **** static void button_handler(Button* handle);
  16:Core/BSP/multi_button.c **** static inline uint8_t button_read_level(Button* handle);
  17:Core/BSP/multi_button.c **** 
  18:Core/BSP/multi_button.c **** /**
  19:Core/BSP/multi_button.c ****   * @brief  Initialize the button struct handle
  20:Core/BSP/multi_button.c ****   * @param  handle: the button handle struct
  21:Core/BSP/multi_button.c ****   * @param  pin_level: read the HAL GPIO of the connected button level
  22:Core/BSP/multi_button.c ****   * @param  active_level: pressed GPIO level
  23:Core/BSP/multi_button.c ****   * @param  button_id: the button id
  24:Core/BSP/multi_button.c ****   * @retval None
  25:Core/BSP/multi_button.c ****   */
  26:Core/BSP/multi_button.c **** void button_init(Button* handle, uint8_t(*pin_level)(uint8_t), uint8_t active_level, uint8_t button
  27:Core/BSP/multi_button.c **** {
  28:Core/BSP/multi_button.c **** 	if (!handle || !pin_level) return;  // parameter validation
  29:Core/BSP/multi_button.c **** 
  30:Core/BSP/multi_button.c **** 	memset(handle, 0, sizeof(Button));
ARM GAS  C:\Users\ASUS\AppData\Local\Temp\ccz5ObUH.s 			page 2


  31:Core/BSP/multi_button.c **** 	handle->event = (uint8_t)BTN_NONE_PRESS;
  32:Core/BSP/multi_button.c **** 	handle->hal_button_level = pin_level;
  33:Core/BSP/multi_button.c **** 	handle->button_level = !active_level;  // initialize to opposite of active level
  34:Core/BSP/multi_button.c **** 	handle->active_level = active_level;
  35:Core/BSP/multi_button.c **** 	handle->button_id = button_id;
  36:Core/BSP/multi_button.c **** 	handle->state = BTN_STATE_IDLE;
  37:Core/BSP/multi_button.c **** 	// user_data is zeroed by memset
  38:Core/BSP/multi_button.c **** }
  39:Core/BSP/multi_button.c **** 
  40:Core/BSP/multi_button.c **** /**
  41:Core/BSP/multi_button.c ****   * @brief  Attach the button event callback function
  42:Core/BSP/multi_button.c ****   * @param  handle: the button handle struct
  43:Core/BSP/multi_button.c ****   * @param  event: trigger event type
  44:Core/BSP/multi_button.c ****   * @param  cb: callback function
  45:Core/BSP/multi_button.c ****   * @param  user_data: user context pointer passed to callback (stored per-button)
  46:Core/BSP/multi_button.c ****   * @retval None
  47:Core/BSP/multi_button.c ****   */
  48:Core/BSP/multi_button.c **** void button_attach(Button* handle, ButtonEvent event, BtnCallback cb, void* user_data)
  49:Core/BSP/multi_button.c **** {
  50:Core/BSP/multi_button.c **** 	if (!handle || event >= BTN_EVENT_COUNT) return;  // parameter validation
  51:Core/BSP/multi_button.c **** 	handle->cb[event] = cb;
  52:Core/BSP/multi_button.c **** 	handle->user_data = user_data;
  53:Core/BSP/multi_button.c **** }
  54:Core/BSP/multi_button.c **** 
  55:Core/BSP/multi_button.c **** /**
  56:Core/BSP/multi_button.c ****   * @brief  Detach the button event callback function
  57:Core/BSP/multi_button.c ****   * @param  handle: the button handle struct
  58:Core/BSP/multi_button.c ****   * @param  event: trigger event type
  59:Core/BSP/multi_button.c ****   * @retval None
  60:Core/BSP/multi_button.c ****   */
  61:Core/BSP/multi_button.c **** void button_detach(Button* handle, ButtonEvent event)
  62:Core/BSP/multi_button.c **** {
  63:Core/BSP/multi_button.c **** 	if (!handle || event >= BTN_EVENT_COUNT) return;  // parameter validation
  64:Core/BSP/multi_button.c **** 	handle->cb[event] = NULL;
  65:Core/BSP/multi_button.c **** }
  66:Core/BSP/multi_button.c **** 
  67:Core/BSP/multi_button.c **** /**
  68:Core/BSP/multi_button.c ****   * @brief  Get the button event that happened
  69:Core/BSP/multi_button.c ****   * @param  handle: the button handle struct
  70:Core/BSP/multi_button.c ****   * @retval button event
  71:Core/BSP/multi_button.c ****   */
  72:Core/BSP/multi_button.c **** ButtonEvent button_get_event(Button* handle)
  73:Core/BSP/multi_button.c **** {
  74:Core/BSP/multi_button.c **** 	if (!handle) return BTN_NONE_PRESS;
  75:Core/BSP/multi_button.c **** 	return (ButtonEvent)(handle->event);
  76:Core/BSP/multi_button.c **** }
  77:Core/BSP/multi_button.c **** 
  78:Core/BSP/multi_button.c **** /**
  79:Core/BSP/multi_button.c ****   * @brief  Get the repeat count of button presses
  80:Core/BSP/multi_button.c ****   * @param  handle: the button handle struct
  81:Core/BSP/multi_button.c ****   * @retval repeat count
  82:Core/BSP/multi_button.c ****   */
  83:Core/BSP/multi_button.c **** uint8_t button_get_repeat_count(Button* handle)
  84:Core/BSP/multi_button.c **** {
  85:Core/BSP/multi_button.c **** 	if (!handle) return 0;
  86:Core/BSP/multi_button.c **** 	return handle->repeat;
  87:Core/BSP/multi_button.c **** }
ARM GAS  C:\Users\ASUS\AppData\Local\Temp\ccz5ObUH.s 			page 3


  88:Core/BSP/multi_button.c **** 
  89:Core/BSP/multi_button.c **** /**
  90:Core/BSP/multi_button.c ****   * @brief  Reset button state to idle
  91:Core/BSP/multi_button.c ****   * @param  handle: the button handle struct
  92:Core/BSP/multi_button.c ****   * @retval None
  93:Core/BSP/multi_button.c ****   */
  94:Core/BSP/multi_button.c **** void button_reset(Button* handle)
  95:Core/BSP/multi_button.c **** {
  96:Core/BSP/multi_button.c **** 	if (!handle) return;
  97:Core/BSP/multi_button.c **** 	handle->state = BTN_STATE_IDLE;
  98:Core/BSP/multi_button.c **** 	handle->ticks = 0;
  99:Core/BSP/multi_button.c **** 	handle->repeat = 0;
 100:Core/BSP/multi_button.c **** 	handle->event = (uint8_t)BTN_NONE_PRESS;
 101:Core/BSP/multi_button.c **** 	handle->debounce_cnt = 0;
 102:Core/BSP/multi_button.c **** }
 103:Core/BSP/multi_button.c **** 
 104:Core/BSP/multi_button.c **** /**
 105:Core/BSP/multi_button.c ****   * @brief  Check if button is currently pressed
 106:Core/BSP/multi_button.c ****   * @param  handle: the button handle struct
 107:Core/BSP/multi_button.c ****   * @retval 1: pressed, 0: not pressed, -1: error
 108:Core/BSP/multi_button.c ****   */
 109:Core/BSP/multi_button.c **** int button_is_pressed(Button* handle)
 110:Core/BSP/multi_button.c **** {
 111:Core/BSP/multi_button.c **** 	if (!handle) return -1;
 112:Core/BSP/multi_button.c **** 	return (handle->button_level == handle->active_level) ? 1 : 0;
 113:Core/BSP/multi_button.c **** }
 114:Core/BSP/multi_button.c **** 
 115:Core/BSP/multi_button.c **** /**
 116:Core/BSP/multi_button.c ****   * @brief  Read button level with inline optimization
 117:Core/BSP/multi_button.c ****   * @param  handle: the button handle struct
 118:Core/BSP/multi_button.c ****   * @retval button level
 119:Core/BSP/multi_button.c ****   */
 120:Core/BSP/multi_button.c **** static inline uint8_t button_read_level(Button* handle)
 121:Core/BSP/multi_button.c **** {
 122:Core/BSP/multi_button.c **** 	return handle->hal_button_level(handle->button_id);
 123:Core/BSP/multi_button.c **** }
 124:Core/BSP/multi_button.c **** 
 125:Core/BSP/multi_button.c **** /**
 126:Core/BSP/multi_button.c ****   * @brief  Button driver core function, driver state machine
 127:Core/BSP/multi_button.c ****   * @param  handle: the button handle struct
 128:Core/BSP/multi_button.c ****   * @retval None
 129:Core/BSP/multi_button.c ****   */
 130:Core/BSP/multi_button.c **** static void button_handler(Button* handle)
 131:Core/BSP/multi_button.c **** {
  29              		.loc 1 131 1 view -0
  30              		.cfi_startproc
  31              		@ args = 0, pretend = 0, frame = 0
  32              		@ frame_needed = 0, uses_anonymous_args = 0
  33              		.loc 1 131 1 is_stmt 0 view .LVU1
  34 0000 10B5     		push	{r4, lr}
  35              	.LCFI0:
  36              		.cfi_def_cfa_offset 8
  37              		.cfi_offset 4, -8
  38              		.cfi_offset 14, -4
  39 0002 0446     		mov	r4, r0
 132:Core/BSP/multi_button.c **** 	uint8_t read_gpio_level = button_read_level(handle);
  40              		.loc 1 132 2 is_stmt 1 view .LVU2
ARM GAS  C:\Users\ASUS\AppData\Local\Temp\ccz5ObUH.s 			page 4


  41              	.LVL1:
  42              	.LBB4:
  43              	.LBI4:
 120:Core/BSP/multi_button.c **** {
  44              		.loc 1 120 23 view .LVU3
  45              	.LBB5:
 122:Core/BSP/multi_button.c **** }
  46              		.loc 1 122 2 view .LVU4
 122:Core/BSP/multi_button.c **** }
  47              		.loc 1 122 15 is_stmt 0 view .LVU5
  48 0004 8368     		ldr	r3, [r0, #8]
 122:Core/BSP/multi_button.c **** }
  49              		.loc 1 122 9 view .LVU6
  50 0006 0079     		ldrb	r0, [r0, #4]	@ zero_extendqisi2
  51              	.LVL2:
 122:Core/BSP/multi_button.c **** }
  52              		.loc 1 122 9 view .LVU7
  53 0008 9847     		blx	r3
  54              	.LVL3:
 122:Core/BSP/multi_button.c **** }
  55              		.loc 1 122 9 view .LVU8
  56              	.LBE5:
  57              	.LBE4:
 133:Core/BSP/multi_button.c **** 
 134:Core/BSP/multi_button.c **** 	// Increment ticks counter when not in idle state (with saturation)
 135:Core/BSP/multi_button.c **** 	if (handle->state > BTN_STATE_IDLE) {
  58              		.loc 1 135 2 is_stmt 1 view .LVU9
  59              		.loc 1 135 20 is_stmt 0 view .LVU10
  60 000a E378     		ldrb	r3, [r4, #3]	@ zero_extendqisi2
  61              		.loc 1 135 5 view .LVU11
  62 000c 13F0070F 		tst	r3, #7
  63 0010 06D0     		beq	.L2
 136:Core/BSP/multi_button.c **** 		if (handle->ticks < UINT16_MAX) {
  64              		.loc 1 136 3 is_stmt 1 view .LVU12
  65              		.loc 1 136 13 is_stmt 0 view .LVU13
  66 0012 2388     		ldrh	r3, [r4]
  67              		.loc 1 136 6 view .LVU14
  68 0014 4FF6FF72 		movw	r2, #65535
  69 0018 9342     		cmp	r3, r2
  70 001a 01D0     		beq	.L2
 137:Core/BSP/multi_button.c **** 			handle->ticks++;
  71              		.loc 1 137 4 is_stmt 1 view .LVU15
  72              		.loc 1 137 17 is_stmt 0 view .LVU16
  73 001c 0133     		adds	r3, r3, #1
  74 001e 2380     		strh	r3, [r4]	@ movhi
  75              	.L2:
 138:Core/BSP/multi_button.c **** 		}
 139:Core/BSP/multi_button.c **** 	}
 140:Core/BSP/multi_button.c **** 
 141:Core/BSP/multi_button.c **** 	/* Button debounce handling */
 142:Core/BSP/multi_button.c **** 	if (read_gpio_level != handle->button_level) {
  76              		.loc 1 142 2 is_stmt 1 view .LVU17
  77              		.loc 1 142 31 is_stmt 0 view .LVU18
  78 0020 E378     		ldrb	r3, [r4, #3]	@ zero_extendqisi2
  79              		.loc 1 142 5 view .LVU19
  80 0022 B0EBD31F 		cmp	r0, r3, lsr #7
  81 0026 13D0     		beq	.L3
ARM GAS  C:\Users\ASUS\AppData\Local\Temp\ccz5ObUH.s 			page 5


 143:Core/BSP/multi_button.c **** 		// Continue reading same new level for debounce
 144:Core/BSP/multi_button.c **** 		if (++(handle->debounce_cnt) >= DEBOUNCE_TICKS) {
  82              		.loc 1 144 3 is_stmt 1 view .LVU20
  83              		.loc 1 144 16 is_stmt 0 view .LVU21
  84 0028 1A46     		mov	r2, r3
  85 002a C3F3C203 		ubfx	r3, r3, #3, #3
  86              		.loc 1 144 7 view .LVU22
  87 002e 0133     		adds	r3, r3, #1
  88 0030 03F00703 		and	r3, r3, #7
  89              		.loc 1 144 6 view .LVU23
  90 0034 63F3C502 		bfi	r2, r3, #3, #3
  91 0038 E270     		strb	r2, [r4, #3]
  92 003a 022B     		cmp	r3, #2
  93 003c 0CD9     		bls	.L4
 145:Core/BSP/multi_button.c **** 			handle->button_level = read_gpio_level;
  94              		.loc 1 145 4 is_stmt 1 view .LVU24
  95              		.loc 1 145 25 is_stmt 0 view .LVU25
  96 003e D3B2     		uxtb	r3, r2
  97 0040 60F3C713 		bfi	r3, r0, #7, #1
  98 0044 E370     		strb	r3, [r4, #3]
 146:Core/BSP/multi_button.c **** 			handle->debounce_cnt = 0;
  99              		.loc 1 146 4 is_stmt 1 view .LVU26
 100              		.loc 1 146 25 is_stmt 0 view .LVU27
 101 0046 DBB2     		uxtb	r3, r3
 102 0048 6FF3C503 		bfc	r3, #3, #3
 103 004c E370     		strb	r3, [r4, #3]
 104 004e 03E0     		b	.L4
 105              	.L3:
 147:Core/BSP/multi_button.c **** 		}
 148:Core/BSP/multi_button.c **** 	} else {
 149:Core/BSP/multi_button.c **** 		// Level not changed, reset counter
 150:Core/BSP/multi_button.c **** 		handle->debounce_cnt = 0;
 106              		.loc 1 150 3 is_stmt 1 view .LVU28
 107              		.loc 1 150 24 is_stmt 0 view .LVU29
 108 0050 E378     		ldrb	r3, [r4, #3]	@ zero_extendqisi2
 109 0052 6FF3C503 		bfc	r3, #3, #3
 110 0056 E370     		strb	r3, [r4, #3]
 111              	.L4:
 151:Core/BSP/multi_button.c **** 	}
 152:Core/BSP/multi_button.c **** 
 153:Core/BSP/multi_button.c **** 	/* State machine */
 154:Core/BSP/multi_button.c **** 	switch (handle->state) {
 112              		.loc 1 154 2 is_stmt 1 view .LVU30
 113              		.loc 1 154 16 is_stmt 0 view .LVU31
 114 0058 E378     		ldrb	r3, [r4, #3]	@ zero_extendqisi2
 115 005a 03F00703 		and	r3, r3, #7
 116              		.loc 1 154 2 view .LVU32
 117 005e 042B     		cmp	r3, #4
 118 0060 00F2F980 		bhi	.L5
 119 0064 DFE813F0 		tbh	[pc, r3, lsl #1]
 120              	.L7:
 121 0068 0500     		.2byte	(.L11-.L7)/2
 122 006a 2600     		.2byte	(.L10-.L7)/2
 123 006c 5100     		.2byte	(.L9-.L7)/2
 124 006e A500     		.2byte	(.L8-.L7)/2
 125 0070 D500     		.2byte	(.L6-.L7)/2
 126              		.p2align 1
ARM GAS  C:\Users\ASUS\AppData\Local\Temp\ccz5ObUH.s 			page 6


 127              	.L11:
 155:Core/BSP/multi_button.c **** 	case BTN_STATE_IDLE:
 156:Core/BSP/multi_button.c **** 		if (handle->button_level == handle->active_level) {
 128              		.loc 1 156 3 is_stmt 1 view .LVU33
 129              		.loc 1 156 13 is_stmt 0 view .LVU34
 130 0072 E378     		ldrb	r3, [r4, #3]	@ zero_extendqisi2
 131              		.loc 1 156 37 view .LVU35
 132 0074 C3F38012 		ubfx	r2, r3, #6, #1
 133              		.loc 1 156 6 view .LVU36
 134 0078 B2EBD31F 		cmp	r2, r3, lsr #7
 135 007c 05D0     		beq	.L30
 157:Core/BSP/multi_button.c **** 			// Button press detected
 158:Core/BSP/multi_button.c **** 			handle->event = (uint8_t)BTN_PRESS_DOWN;
 159:Core/BSP/multi_button.c **** 			EVENT_CB(BTN_PRESS_DOWN);
 160:Core/BSP/multi_button.c **** 			handle->ticks = 0;
 161:Core/BSP/multi_button.c **** 			handle->repeat = 1;
 162:Core/BSP/multi_button.c **** 			handle->state = BTN_STATE_PRESS;
 163:Core/BSP/multi_button.c **** 		} else {
 164:Core/BSP/multi_button.c **** 			handle->event = (uint8_t)BTN_NONE_PRESS;
 136              		.loc 1 164 4 is_stmt 1 view .LVU37
 137              		.loc 1 164 18 is_stmt 0 view .LVU38
 138 007e A378     		ldrb	r3, [r4, #2]	@ zero_extendqisi2
 139 0080 0822     		movs	r2, #8
 140 0082 62F30713 		bfi	r3, r2, #4, #4
 141 0086 A370     		strb	r3, [r4, #2]
 142              	.LVL4:
 143              	.L1:
 165:Core/BSP/multi_button.c **** 		}
 166:Core/BSP/multi_button.c **** 		break;
 167:Core/BSP/multi_button.c **** 
 168:Core/BSP/multi_button.c **** 	case BTN_STATE_PRESS:
 169:Core/BSP/multi_button.c **** 		if (handle->button_level != handle->active_level) {
 170:Core/BSP/multi_button.c **** 			// Button released
 171:Core/BSP/multi_button.c **** 			handle->event = (uint8_t)BTN_PRESS_UP;
 172:Core/BSP/multi_button.c **** 			EVENT_CB(BTN_PRESS_UP);
 173:Core/BSP/multi_button.c **** 			handle->ticks = 0;
 174:Core/BSP/multi_button.c **** 			handle->state = BTN_STATE_RELEASE;
 175:Core/BSP/multi_button.c **** 		} else if (handle->ticks > LONG_TICKS) {
 176:Core/BSP/multi_button.c **** 			// Long press detected
 177:Core/BSP/multi_button.c **** 			handle->event = (uint8_t)BTN_LONG_PRESS_START;
 178:Core/BSP/multi_button.c **** 			EVENT_CB(BTN_LONG_PRESS_START);
 179:Core/BSP/multi_button.c **** 			handle->state = BTN_STATE_LONG_HOLD;
 180:Core/BSP/multi_button.c **** 		}
 181:Core/BSP/multi_button.c **** 		break;
 182:Core/BSP/multi_button.c **** 
 183:Core/BSP/multi_button.c **** 	case BTN_STATE_RELEASE:
 184:Core/BSP/multi_button.c **** 		if (handle->button_level == handle->active_level) {
 185:Core/BSP/multi_button.c **** 			// Button pressed again
 186:Core/BSP/multi_button.c **** 			handle->event = (uint8_t)BTN_PRESS_DOWN;
 187:Core/BSP/multi_button.c **** 			EVENT_CB(BTN_PRESS_DOWN);
 188:Core/BSP/multi_button.c **** 			if (handle->repeat < PRESS_REPEAT_MAX_NUM) {
 189:Core/BSP/multi_button.c **** 				handle->repeat++;
 190:Core/BSP/multi_button.c **** 			}
 191:Core/BSP/multi_button.c **** 			handle->event = (uint8_t)BTN_PRESS_REPEAT;
 192:Core/BSP/multi_button.c **** 			EVENT_CB(BTN_PRESS_REPEAT);
 193:Core/BSP/multi_button.c **** 			handle->ticks = 0;
 194:Core/BSP/multi_button.c **** 			handle->state = BTN_STATE_REPEAT;
ARM GAS  C:\Users\ASUS\AppData\Local\Temp\ccz5ObUH.s 			page 7


 195:Core/BSP/multi_button.c **** 		} else if (handle->ticks > SHORT_TICKS) {
 196:Core/BSP/multi_button.c **** 			// Timeout reached, determine click type
 197:Core/BSP/multi_button.c **** 			if (handle->repeat == 1) {
 198:Core/BSP/multi_button.c **** 				handle->event = (uint8_t)BTN_SINGLE_CLICK;
 199:Core/BSP/multi_button.c **** 				EVENT_CB(BTN_SINGLE_CLICK);
 200:Core/BSP/multi_button.c **** 			} else if (handle->repeat == 2) {
 201:Core/BSP/multi_button.c **** 				handle->event = (uint8_t)BTN_DOUBLE_CLICK;
 202:Core/BSP/multi_button.c **** 				EVENT_CB(BTN_DOUBLE_CLICK);
 203:Core/BSP/multi_button.c **** 			}
 204:Core/BSP/multi_button.c **** 			handle->state = BTN_STATE_IDLE;
 205:Core/BSP/multi_button.c **** 		}
 206:Core/BSP/multi_button.c **** 		break;
 207:Core/BSP/multi_button.c **** 
 208:Core/BSP/multi_button.c **** 	case BTN_STATE_REPEAT:
 209:Core/BSP/multi_button.c **** 		if (handle->button_level != handle->active_level) {
 210:Core/BSP/multi_button.c **** 			// Button released
 211:Core/BSP/multi_button.c **** 			handle->event = (uint8_t)BTN_PRESS_UP;
 212:Core/BSP/multi_button.c **** 			EVENT_CB(BTN_PRESS_UP);
 213:Core/BSP/multi_button.c **** 			if (handle->ticks < SHORT_TICKS) {
 214:Core/BSP/multi_button.c **** 				handle->ticks = 0;
 215:Core/BSP/multi_button.c **** 				handle->state = BTN_STATE_RELEASE;  // Continue waiting for more presses
 216:Core/BSP/multi_button.c **** 			} else {
 217:Core/BSP/multi_button.c **** 				handle->state = BTN_STATE_IDLE;  // End of sequence
 218:Core/BSP/multi_button.c **** 			}
 219:Core/BSP/multi_button.c **** 		} else if (handle->ticks > SHORT_TICKS) {
 220:Core/BSP/multi_button.c **** 			// Held down too long, treat as normal press
 221:Core/BSP/multi_button.c **** 			handle->ticks = 0;      // reset for fresh long-press timing
 222:Core/BSP/multi_button.c **** 			handle->repeat = 0;     // clear repeat count for new press cycle
 223:Core/BSP/multi_button.c **** 			handle->state = BTN_STATE_PRESS;
 224:Core/BSP/multi_button.c **** 		}
 225:Core/BSP/multi_button.c **** 		break;
 226:Core/BSP/multi_button.c **** 
 227:Core/BSP/multi_button.c **** 	case BTN_STATE_LONG_HOLD:
 228:Core/BSP/multi_button.c **** 		if (handle->button_level == handle->active_level) {
 229:Core/BSP/multi_button.c **** 			// Continue holding
 230:Core/BSP/multi_button.c **** 			handle->event = (uint8_t)BTN_LONG_PRESS_HOLD;
 231:Core/BSP/multi_button.c **** 			EVENT_CB(BTN_LONG_PRESS_HOLD);
 232:Core/BSP/multi_button.c **** 		} else {
 233:Core/BSP/multi_button.c **** 			// Released from long press
 234:Core/BSP/multi_button.c **** 			handle->event = (uint8_t)BTN_PRESS_UP;
 235:Core/BSP/multi_button.c **** 			EVENT_CB(BTN_PRESS_UP);
 236:Core/BSP/multi_button.c **** 			handle->state = BTN_STATE_IDLE;
 237:Core/BSP/multi_button.c **** 		}
 238:Core/BSP/multi_button.c **** 		break;
 239:Core/BSP/multi_button.c **** 
 240:Core/BSP/multi_button.c **** 	default:
 241:Core/BSP/multi_button.c **** 		// Invalid state, reset to idle
 242:Core/BSP/multi_button.c **** 		handle->state = BTN_STATE_IDLE;
 243:Core/BSP/multi_button.c **** 		break;
 244:Core/BSP/multi_button.c **** 	}
 245:Core/BSP/multi_button.c **** }
 144              		.loc 1 245 1 view .LVU39
 145 0088 10BD     		pop	{r4, pc}
 146              	.LVL5:
 147              	.L30:
 158:Core/BSP/multi_button.c **** 			EVENT_CB(BTN_PRESS_DOWN);
 148              		.loc 1 158 4 is_stmt 1 view .LVU40
ARM GAS  C:\Users\ASUS\AppData\Local\Temp\ccz5ObUH.s 			page 8


 158:Core/BSP/multi_button.c **** 			EVENT_CB(BTN_PRESS_DOWN);
 149              		.loc 1 158 18 is_stmt 0 view .LVU41
 150 008a A378     		ldrb	r3, [r4, #2]	@ zero_extendqisi2
 151 008c 6FF30713 		bfc	r3, #4, #4
 152 0090 A370     		strb	r3, [r4, #2]
 159:Core/BSP/multi_button.c **** 			handle->ticks = 0;
 153              		.loc 1 159 4 is_stmt 1 view .LVU42
 159:Core/BSP/multi_button.c **** 			handle->ticks = 0;
 154              		.loc 1 159 4 view .LVU43
 155 0092 E368     		ldr	r3, [r4, #12]
 156 0094 13B1     		cbz	r3, .L13
 159:Core/BSP/multi_button.c **** 			handle->ticks = 0;
 157              		.loc 1 159 4 discriminator 1 view .LVU44
 158 0096 A16A     		ldr	r1, [r4, #40]
 159 0098 2046     		mov	r0, r4
 160              	.LVL6:
 159:Core/BSP/multi_button.c **** 			handle->ticks = 0;
 161              		.loc 1 159 4 is_stmt 0 discriminator 1 view .LVU45
 162 009a 9847     		blx	r3
 163              	.LVL7:
 164              	.L13:
 159:Core/BSP/multi_button.c **** 			handle->ticks = 0;
 165              		.loc 1 159 4 is_stmt 1 discriminator 3 view .LVU46
 160:Core/BSP/multi_button.c **** 			handle->repeat = 1;
 166              		.loc 1 160 4 discriminator 3 view .LVU47
 160:Core/BSP/multi_button.c **** 			handle->repeat = 1;
 167              		.loc 1 160 18 is_stmt 0 discriminator 3 view .LVU48
 168 009c 0023     		movs	r3, #0
 169 009e 2380     		strh	r3, [r4]	@ movhi
 161:Core/BSP/multi_button.c **** 			handle->state = BTN_STATE_PRESS;
 170              		.loc 1 161 4 is_stmt 1 discriminator 3 view .LVU49
 161:Core/BSP/multi_button.c **** 			handle->state = BTN_STATE_PRESS;
 171              		.loc 1 161 19 is_stmt 0 discriminator 3 view .LVU50
 172 00a0 A378     		ldrb	r3, [r4, #2]	@ zero_extendqisi2
 173 00a2 0122     		movs	r2, #1
 174 00a4 62F30303 		bfi	r3, r2, #0, #4
 175 00a8 A370     		strb	r3, [r4, #2]
 162:Core/BSP/multi_button.c **** 		} else {
 176              		.loc 1 162 4 is_stmt 1 discriminator 3 view .LVU51
 162:Core/BSP/multi_button.c **** 		} else {
 177              		.loc 1 162 18 is_stmt 0 discriminator 3 view .LVU52
 178 00aa E378     		ldrb	r3, [r4, #3]	@ zero_extendqisi2
 179 00ac 62F30203 		bfi	r3, r2, #0, #3
 180 00b0 E370     		strb	r3, [r4, #3]
 181 00b2 E9E7     		b	.L1
 182              	.LVL8:
 183              	.L10:
 169:Core/BSP/multi_button.c **** 			// Button released
 184              		.loc 1 169 3 is_stmt 1 view .LVU53
 169:Core/BSP/multi_button.c **** 			// Button released
 185              		.loc 1 169 13 is_stmt 0 view .LVU54
 186 00b4 E378     		ldrb	r3, [r4, #3]	@ zero_extendqisi2
 169:Core/BSP/multi_button.c **** 			// Button released
 187              		.loc 1 169 37 view .LVU55
 188 00b6 C3F38012 		ubfx	r2, r3, #6, #1
 169:Core/BSP/multi_button.c **** 			// Button released
 189              		.loc 1 169 6 view .LVU56
ARM GAS  C:\Users\ASUS\AppData\Local\Temp\ccz5ObUH.s 			page 9


 190 00ba B2EBD31F 		cmp	r2, r3, lsr #7
 191 00be 11D0     		beq	.L15
 171:Core/BSP/multi_button.c **** 			EVENT_CB(BTN_PRESS_UP);
 192              		.loc 1 171 4 is_stmt 1 view .LVU57
 171:Core/BSP/multi_button.c **** 			EVENT_CB(BTN_PRESS_UP);
 193              		.loc 1 171 18 is_stmt 0 view .LVU58
 194 00c0 A378     		ldrb	r3, [r4, #2]	@ zero_extendqisi2
 195 00c2 0122     		movs	r2, #1
 196 00c4 62F30713 		bfi	r3, r2, #4, #4
 197 00c8 A370     		strb	r3, [r4, #2]
 172:Core/BSP/multi_button.c **** 			handle->ticks = 0;
 198              		.loc 1 172 4 is_stmt 1 view .LVU59
 172:Core/BSP/multi_button.c **** 			handle->ticks = 0;
 199              		.loc 1 172 4 view .LVU60
 200 00ca 2369     		ldr	r3, [r4, #16]
 201 00cc 13B1     		cbz	r3, .L16
 172:Core/BSP/multi_button.c **** 			handle->ticks = 0;
 202              		.loc 1 172 4 discriminator 1 view .LVU61
 203 00ce A16A     		ldr	r1, [r4, #40]
 204 00d0 2046     		mov	r0, r4
 205              	.LVL9:
 172:Core/BSP/multi_button.c **** 			handle->ticks = 0;
 206              		.loc 1 172 4 is_stmt 0 discriminator 1 view .LVU62
 207 00d2 9847     		blx	r3
 208              	.LVL10:
 209              	.L16:
 172:Core/BSP/multi_button.c **** 			handle->ticks = 0;
 210              		.loc 1 172 4 is_stmt 1 discriminator 3 view .LVU63
 173:Core/BSP/multi_button.c **** 			handle->state = BTN_STATE_RELEASE;
 211              		.loc 1 173 4 discriminator 3 view .LVU64
 173:Core/BSP/multi_button.c **** 			handle->state = BTN_STATE_RELEASE;
 212              		.loc 1 173 18 is_stmt 0 discriminator 3 view .LVU65
 213 00d4 0023     		movs	r3, #0
 214 00d6 2380     		strh	r3, [r4]	@ movhi
 174:Core/BSP/multi_button.c **** 		} else if (handle->ticks > LONG_TICKS) {
 215              		.loc 1 174 4 is_stmt 1 discriminator 3 view .LVU66
 174:Core/BSP/multi_button.c **** 		} else if (handle->ticks > LONG_TICKS) {
 216              		.loc 1 174 18 is_stmt 0 discriminator 3 view .LVU67
 217 00d8 E378     		ldrb	r3, [r4, #3]	@ zero_extendqisi2
 218 00da 0222     		movs	r2, #2
 219 00dc 62F30203 		bfi	r3, r2, #0, #3
 220 00e0 E370     		strb	r3, [r4, #3]
 221 00e2 D1E7     		b	.L1
 222              	.LVL11:
 223              	.L15:
 175:Core/BSP/multi_button.c **** 			// Long press detected
 224              		.loc 1 175 10 is_stmt 1 view .LVU68
 175:Core/BSP/multi_button.c **** 			// Long press detected
 225              		.loc 1 175 20 is_stmt 0 view .LVU69
 226 00e4 2388     		ldrh	r3, [r4]
 175:Core/BSP/multi_button.c **** 			// Long press detected
 227              		.loc 1 175 13 view .LVU70
 228 00e6 C82B     		cmp	r3, #200
 229 00e8 CED9     		bls	.L1
 177:Core/BSP/multi_button.c **** 			EVENT_CB(BTN_LONG_PRESS_START);
 230              		.loc 1 177 4 is_stmt 1 view .LVU71
 177:Core/BSP/multi_button.c **** 			EVENT_CB(BTN_LONG_PRESS_START);
ARM GAS  C:\Users\ASUS\AppData\Local\Temp\ccz5ObUH.s 			page 10


 231              		.loc 1 177 18 is_stmt 0 view .LVU72
 232 00ea A378     		ldrb	r3, [r4, #2]	@ zero_extendqisi2
 233 00ec 0522     		movs	r2, #5
 234 00ee 62F30713 		bfi	r3, r2, #4, #4
 235 00f2 A370     		strb	r3, [r4, #2]
 178:Core/BSP/multi_button.c **** 			handle->state = BTN_STATE_LONG_HOLD;
 236              		.loc 1 178 4 is_stmt 1 view .LVU73
 178:Core/BSP/multi_button.c **** 			handle->state = BTN_STATE_LONG_HOLD;
 237              		.loc 1 178 4 view .LVU74
 238 00f4 236A     		ldr	r3, [r4, #32]
 239 00f6 13B1     		cbz	r3, .L17
 178:Core/BSP/multi_button.c **** 			handle->state = BTN_STATE_LONG_HOLD;
 240              		.loc 1 178 4 discriminator 1 view .LVU75
 241 00f8 A16A     		ldr	r1, [r4, #40]
 242 00fa 2046     		mov	r0, r4
 243              	.LVL12:
 178:Core/BSP/multi_button.c **** 			handle->state = BTN_STATE_LONG_HOLD;
 244              		.loc 1 178 4 is_stmt 0 discriminator 1 view .LVU76
 245 00fc 9847     		blx	r3
 246              	.LVL13:
 247              	.L17:
 178:Core/BSP/multi_button.c **** 			handle->state = BTN_STATE_LONG_HOLD;
 248              		.loc 1 178 4 is_stmt 1 discriminator 3 view .LVU77
 179:Core/BSP/multi_button.c **** 		}
 249              		.loc 1 179 4 discriminator 3 view .LVU78
 179:Core/BSP/multi_button.c **** 		}
 250              		.loc 1 179 18 is_stmt 0 discriminator 3 view .LVU79
 251 00fe E378     		ldrb	r3, [r4, #3]	@ zero_extendqisi2
 252 0100 0422     		movs	r2, #4
 253 0102 62F30203 		bfi	r3, r2, #0, #3
 254 0106 E370     		strb	r3, [r4, #3]
 255 0108 BEE7     		b	.L1
 256              	.LVL14:
 257              	.L9:
 184:Core/BSP/multi_button.c **** 			// Button pressed again
 258              		.loc 1 184 3 is_stmt 1 view .LVU80
 184:Core/BSP/multi_button.c **** 			// Button pressed again
 259              		.loc 1 184 13 is_stmt 0 view .LVU81
 260 010a E378     		ldrb	r3, [r4, #3]	@ zero_extendqisi2
 184:Core/BSP/multi_button.c **** 			// Button pressed again
 261              		.loc 1 184 37 view .LVU82
 262 010c C3F38012 		ubfx	r2, r3, #6, #1
 184:Core/BSP/multi_button.c **** 			// Button pressed again
 263              		.loc 1 184 6 view .LVU83
 264 0110 B2EBD31F 		cmp	r2, r3, lsr #7
 265 0114 0ED0     		beq	.L31
 195:Core/BSP/multi_button.c **** 			// Timeout reached, determine click type
 266              		.loc 1 195 10 is_stmt 1 view .LVU84
 195:Core/BSP/multi_button.c **** 			// Timeout reached, determine click type
 267              		.loc 1 195 20 is_stmt 0 view .LVU85
 268 0116 2388     		ldrh	r3, [r4]
 195:Core/BSP/multi_button.c **** 			// Timeout reached, determine click type
 269              		.loc 1 195 13 view .LVU86
 270 0118 3C2B     		cmp	r3, #60
 271 011a B5D9     		bls	.L1
 197:Core/BSP/multi_button.c **** 				handle->event = (uint8_t)BTN_SINGLE_CLICK;
 272              		.loc 1 197 4 is_stmt 1 view .LVU87
ARM GAS  C:\Users\ASUS\AppData\Local\Temp\ccz5ObUH.s 			page 11


 197:Core/BSP/multi_button.c **** 				handle->event = (uint8_t)BTN_SINGLE_CLICK;
 273              		.loc 1 197 23 is_stmt 0 view .LVU88
 274 011c A378     		ldrb	r3, [r4, #2]	@ zero_extendqisi2
 275 011e 03F00F03 		and	r3, r3, #15
 197:Core/BSP/multi_button.c **** 				handle->event = (uint8_t)BTN_SINGLE_CLICK;
 276              		.loc 1 197 7 view .LVU89
 277 0122 012B     		cmp	r3, #1
 278 0124 2DD0     		beq	.L32
 200:Core/BSP/multi_button.c **** 				handle->event = (uint8_t)BTN_DOUBLE_CLICK;
 279              		.loc 1 200 11 is_stmt 1 view .LVU90
 200:Core/BSP/multi_button.c **** 				handle->event = (uint8_t)BTN_DOUBLE_CLICK;
 280              		.loc 1 200 14 is_stmt 0 view .LVU91
 281 0126 022B     		cmp	r3, #2
 282 0128 37D0     		beq	.L33
 283              	.LVL15:
 284              	.L23:
 202:Core/BSP/multi_button.c **** 			}
 285              		.loc 1 202 5 is_stmt 1 discriminator 3 view .LVU92
 204:Core/BSP/multi_button.c **** 		}
 286              		.loc 1 204 4 discriminator 3 view .LVU93
 204:Core/BSP/multi_button.c **** 		}
 287              		.loc 1 204 18 is_stmt 0 discriminator 3 view .LVU94
 288 012a E378     		ldrb	r3, [r4, #3]	@ zero_extendqisi2
 289 012c 6FF30203 		bfc	r3, #0, #3
 290 0130 E370     		strb	r3, [r4, #3]
 291 0132 A9E7     		b	.L1
 292              	.LVL16:
 293              	.L31:
 186:Core/BSP/multi_button.c **** 			EVENT_CB(BTN_PRESS_DOWN);
 294              		.loc 1 186 4 is_stmt 1 view .LVU95
 186:Core/BSP/multi_button.c **** 			EVENT_CB(BTN_PRESS_DOWN);
 295              		.loc 1 186 18 is_stmt 0 view .LVU96
 296 0134 A378     		ldrb	r3, [r4, #2]	@ zero_extendqisi2
 297 0136 6FF30713 		bfc	r3, #4, #4
 298 013a A370     		strb	r3, [r4, #2]
 187:Core/BSP/multi_button.c **** 			if (handle->repeat < PRESS_REPEAT_MAX_NUM) {
 299              		.loc 1 187 4 is_stmt 1 view .LVU97
 187:Core/BSP/multi_button.c **** 			if (handle->repeat < PRESS_REPEAT_MAX_NUM) {
 300              		.loc 1 187 4 view .LVU98
 301 013c E368     		ldr	r3, [r4, #12]
 302 013e 13B1     		cbz	r3, .L19
 187:Core/BSP/multi_button.c **** 			if (handle->repeat < PRESS_REPEAT_MAX_NUM) {
 303              		.loc 1 187 4 discriminator 1 view .LVU99
 304 0140 A16A     		ldr	r1, [r4, #40]
 305 0142 2046     		mov	r0, r4
 306              	.LVL17:
 187:Core/BSP/multi_button.c **** 			if (handle->repeat < PRESS_REPEAT_MAX_NUM) {
 307              		.loc 1 187 4 is_stmt 0 discriminator 1 view .LVU100
 308 0144 9847     		blx	r3
 309              	.LVL18:
 310              	.L19:
 187:Core/BSP/multi_button.c **** 			if (handle->repeat < PRESS_REPEAT_MAX_NUM) {
 311              		.loc 1 187 4 is_stmt 1 discriminator 3 view .LVU101
 188:Core/BSP/multi_button.c **** 				handle->repeat++;
 312              		.loc 1 188 4 discriminator 3 view .LVU102
 188:Core/BSP/multi_button.c **** 				handle->repeat++;
 313              		.loc 1 188 23 is_stmt 0 discriminator 3 view .LVU103
ARM GAS  C:\Users\ASUS\AppData\Local\Temp\ccz5ObUH.s 			page 12


 314 0146 A378     		ldrb	r3, [r4, #2]	@ zero_extendqisi2
 315 0148 03F00F03 		and	r3, r3, #15
 188:Core/BSP/multi_button.c **** 				handle->repeat++;
 316              		.loc 1 188 7 discriminator 3 view .LVU104
 317 014c 0F2B     		cmp	r3, #15
 318 014e 06D0     		beq	.L20
 189:Core/BSP/multi_button.c **** 			}
 319              		.loc 1 189 5 is_stmt 1 view .LVU105
 189:Core/BSP/multi_button.c **** 			}
 320              		.loc 1 189 11 is_stmt 0 view .LVU106
 321 0150 A378     		ldrb	r3, [r4, #2]	@ zero_extendqisi2
 322 0152 03F00F02 		and	r2, r3, #15
 189:Core/BSP/multi_button.c **** 			}
 323              		.loc 1 189 19 view .LVU107
 324 0156 0132     		adds	r2, r2, #1
 325 0158 62F30303 		bfi	r3, r2, #0, #4
 326 015c A370     		strb	r3, [r4, #2]
 327              	.L20:
 191:Core/BSP/multi_button.c **** 			EVENT_CB(BTN_PRESS_REPEAT);
 328              		.loc 1 191 4 is_stmt 1 view .LVU108
 191:Core/BSP/multi_button.c **** 			EVENT_CB(BTN_PRESS_REPEAT);
 329              		.loc 1 191 18 is_stmt 0 view .LVU109
 330 015e A378     		ldrb	r3, [r4, #2]	@ zero_extendqisi2
 331 0160 0222     		movs	r2, #2
 332 0162 62F30713 		bfi	r3, r2, #4, #4
 333 0166 A370     		strb	r3, [r4, #2]
 192:Core/BSP/multi_button.c **** 			handle->ticks = 0;
 334              		.loc 1 192 4 is_stmt 1 view .LVU110
 192:Core/BSP/multi_button.c **** 			handle->ticks = 0;
 335              		.loc 1 192 4 view .LVU111
 336 0168 6369     		ldr	r3, [r4, #20]
 337 016a 13B1     		cbz	r3, .L21
 192:Core/BSP/multi_button.c **** 			handle->ticks = 0;
 338              		.loc 1 192 4 discriminator 1 view .LVU112
 339 016c A16A     		ldr	r1, [r4, #40]
 340 016e 2046     		mov	r0, r4
 341 0170 9847     		blx	r3
 342              	.LVL19:
 343              	.L21:
 192:Core/BSP/multi_button.c **** 			handle->ticks = 0;
 344              		.loc 1 192 4 discriminator 3 view .LVU113
 193:Core/BSP/multi_button.c **** 			handle->state = BTN_STATE_REPEAT;
 345              		.loc 1 193 4 discriminator 3 view .LVU114
 193:Core/BSP/multi_button.c **** 			handle->state = BTN_STATE_REPEAT;
 346              		.loc 1 193 18 is_stmt 0 discriminator 3 view .LVU115
 347 0172 0023     		movs	r3, #0
 348 0174 2380     		strh	r3, [r4]	@ movhi
 194:Core/BSP/multi_button.c **** 		} else if (handle->ticks > SHORT_TICKS) {
 349              		.loc 1 194 4 is_stmt 1 discriminator 3 view .LVU116
 194:Core/BSP/multi_button.c **** 		} else if (handle->ticks > SHORT_TICKS) {
 350              		.loc 1 194 18 is_stmt 0 discriminator 3 view .LVU117
 351 0176 E378     		ldrb	r3, [r4, #3]	@ zero_extendqisi2
 352 0178 0322     		movs	r2, #3
 353 017a 62F30203 		bfi	r3, r2, #0, #3
 354 017e E370     		strb	r3, [r4, #3]
 355 0180 82E7     		b	.L1
 356              	.LVL20:
ARM GAS  C:\Users\ASUS\AppData\Local\Temp\ccz5ObUH.s 			page 13


 357              	.L32:
 198:Core/BSP/multi_button.c **** 				EVENT_CB(BTN_SINGLE_CLICK);
 358              		.loc 1 198 5 is_stmt 1 view .LVU118
 198:Core/BSP/multi_button.c **** 				EVENT_CB(BTN_SINGLE_CLICK);
 359              		.loc 1 198 19 is_stmt 0 view .LVU119
 360 0182 A378     		ldrb	r3, [r4, #2]	@ zero_extendqisi2
 361 0184 0322     		movs	r2, #3
 362 0186 62F30713 		bfi	r3, r2, #4, #4
 363 018a A370     		strb	r3, [r4, #2]
 199:Core/BSP/multi_button.c **** 			} else if (handle->repeat == 2) {
 364              		.loc 1 199 5 is_stmt 1 view .LVU120
 199:Core/BSP/multi_button.c **** 			} else if (handle->repeat == 2) {
 365              		.loc 1 199 5 view .LVU121
 366 018c A369     		ldr	r3, [r4, #24]
 367 018e 002B     		cmp	r3, #0
 368 0190 CBD0     		beq	.L23
 199:Core/BSP/multi_button.c **** 			} else if (handle->repeat == 2) {
 369              		.loc 1 199 5 discriminator 1 view .LVU122
 370 0192 A16A     		ldr	r1, [r4, #40]
 371 0194 2046     		mov	r0, r4
 372              	.LVL21:
 199:Core/BSP/multi_button.c **** 			} else if (handle->repeat == 2) {
 373              		.loc 1 199 5 is_stmt 0 discriminator 1 view .LVU123
 374 0196 9847     		blx	r3
 375              	.LVL22:
 376 0198 C7E7     		b	.L23
 377              	.LVL23:
 378              	.L33:
 201:Core/BSP/multi_button.c **** 				EVENT_CB(BTN_DOUBLE_CLICK);
 379              		.loc 1 201 5 is_stmt 1 view .LVU124
 201:Core/BSP/multi_button.c **** 				EVENT_CB(BTN_DOUBLE_CLICK);
 380              		.loc 1 201 19 is_stmt 0 view .LVU125
 381 019a A378     		ldrb	r3, [r4, #2]	@ zero_extendqisi2
 382 019c 0422     		movs	r2, #4
 383 019e 62F30713 		bfi	r3, r2, #4, #4
 384 01a2 A370     		strb	r3, [r4, #2]
 202:Core/BSP/multi_button.c **** 			}
 385              		.loc 1 202 5 is_stmt 1 view .LVU126
 202:Core/BSP/multi_button.c **** 			}
 386              		.loc 1 202 5 view .LVU127
 387 01a4 E369     		ldr	r3, [r4, #28]
 388 01a6 002B     		cmp	r3, #0
 389 01a8 BFD0     		beq	.L23
 202:Core/BSP/multi_button.c **** 			}
 390              		.loc 1 202 5 discriminator 1 view .LVU128
 391 01aa A16A     		ldr	r1, [r4, #40]
 392 01ac 2046     		mov	r0, r4
 393              	.LVL24:
 202:Core/BSP/multi_button.c **** 			}
 394              		.loc 1 202 5 is_stmt 0 discriminator 1 view .LVU129
 395 01ae 9847     		blx	r3
 396              	.LVL25:
 397 01b0 BBE7     		b	.L23
 398              	.LVL26:
 399              	.L8:
 209:Core/BSP/multi_button.c **** 			// Button released
 400              		.loc 1 209 3 is_stmt 1 view .LVU130
ARM GAS  C:\Users\ASUS\AppData\Local\Temp\ccz5ObUH.s 			page 14


 209:Core/BSP/multi_button.c **** 			// Button released
 401              		.loc 1 209 13 is_stmt 0 view .LVU131
 402 01b2 E378     		ldrb	r3, [r4, #3]	@ zero_extendqisi2
 209:Core/BSP/multi_button.c **** 			// Button released
 403              		.loc 1 209 37 view .LVU132
 404 01b4 C3F38012 		ubfx	r2, r3, #6, #1
 209:Core/BSP/multi_button.c **** 			// Button released
 405              		.loc 1 209 6 view .LVU133
 406 01b8 B2EBD31F 		cmp	r2, r3, lsr #7
 407 01bc 19D0     		beq	.L24
 211:Core/BSP/multi_button.c **** 			EVENT_CB(BTN_PRESS_UP);
 408              		.loc 1 211 4 is_stmt 1 view .LVU134
 211:Core/BSP/multi_button.c **** 			EVENT_CB(BTN_PRESS_UP);
 409              		.loc 1 211 18 is_stmt 0 view .LVU135
 410 01be A378     		ldrb	r3, [r4, #2]	@ zero_extendqisi2
 411 01c0 0122     		movs	r2, #1
 412 01c2 62F30713 		bfi	r3, r2, #4, #4
 413 01c6 A370     		strb	r3, [r4, #2]
 212:Core/BSP/multi_button.c **** 			if (handle->ticks < SHORT_TICKS) {
 414              		.loc 1 212 4 is_stmt 1 view .LVU136
 212:Core/BSP/multi_button.c **** 			if (handle->ticks < SHORT_TICKS) {
 415              		.loc 1 212 4 view .LVU137
 416 01c8 2369     		ldr	r3, [r4, #16]
 417 01ca 13B1     		cbz	r3, .L25
 212:Core/BSP/multi_button.c **** 			if (handle->ticks < SHORT_TICKS) {
 418              		.loc 1 212 4 discriminator 1 view .LVU138
 419 01cc A16A     		ldr	r1, [r4, #40]
 420 01ce 2046     		mov	r0, r4
 421              	.LVL27:
 212:Core/BSP/multi_button.c **** 			if (handle->ticks < SHORT_TICKS) {
 422              		.loc 1 212 4 is_stmt 0 discriminator 1 view .LVU139
 423 01d0 9847     		blx	r3
 424              	.LVL28:
 425              	.L25:
 212:Core/BSP/multi_button.c **** 			if (handle->ticks < SHORT_TICKS) {
 426              		.loc 1 212 4 is_stmt 1 discriminator 3 view .LVU140
 213:Core/BSP/multi_button.c **** 				handle->ticks = 0;
 427              		.loc 1 213 4 discriminator 3 view .LVU141
 213:Core/BSP/multi_button.c **** 				handle->ticks = 0;
 428              		.loc 1 213 14 is_stmt 0 discriminator 3 view .LVU142
 429 01d2 2388     		ldrh	r3, [r4]
 213:Core/BSP/multi_button.c **** 				handle->ticks = 0;
 430              		.loc 1 213 7 discriminator 3 view .LVU143
 431 01d4 3B2B     		cmp	r3, #59
 432 01d6 07D8     		bhi	.L26
 214:Core/BSP/multi_button.c **** 				handle->state = BTN_STATE_RELEASE;  // Continue waiting for more presses
 433              		.loc 1 214 5 is_stmt 1 view .LVU144
 214:Core/BSP/multi_button.c **** 				handle->state = BTN_STATE_RELEASE;  // Continue waiting for more presses
 434              		.loc 1 214 19 is_stmt 0 view .LVU145
 435 01d8 0023     		movs	r3, #0
 436 01da 2380     		strh	r3, [r4]	@ movhi
 215:Core/BSP/multi_button.c **** 			} else {
 437              		.loc 1 215 5 is_stmt 1 view .LVU146
 215:Core/BSP/multi_button.c **** 			} else {
 438              		.loc 1 215 19 is_stmt 0 view .LVU147
 439 01dc E378     		ldrb	r3, [r4, #3]	@ zero_extendqisi2
 440 01de 0222     		movs	r2, #2
ARM GAS  C:\Users\ASUS\AppData\Local\Temp\ccz5ObUH.s 			page 15


 441 01e0 62F30203 		bfi	r3, r2, #0, #3
 442 01e4 E370     		strb	r3, [r4, #3]
 443 01e6 4FE7     		b	.L1
 444              	.L26:
 217:Core/BSP/multi_button.c **** 			}
 445              		.loc 1 217 5 is_stmt 1 view .LVU148
 217:Core/BSP/multi_button.c **** 			}
 446              		.loc 1 217 19 is_stmt 0 view .LVU149
 447 01e8 E378     		ldrb	r3, [r4, #3]	@ zero_extendqisi2
 448 01ea 6FF30203 		bfc	r3, #0, #3
 449 01ee E370     		strb	r3, [r4, #3]
 450 01f0 4AE7     		b	.L1
 451              	.LVL29:
 452              	.L24:
 219:Core/BSP/multi_button.c **** 			// Held down too long, treat as normal press
 453              		.loc 1 219 10 is_stmt 1 view .LVU150
 219:Core/BSP/multi_button.c **** 			// Held down too long, treat as normal press
 454              		.loc 1 219 20 is_stmt 0 view .LVU151
 455 01f2 2388     		ldrh	r3, [r4]
 219:Core/BSP/multi_button.c **** 			// Held down too long, treat as normal press
 456              		.loc 1 219 13 view .LVU152
 457 01f4 3C2B     		cmp	r3, #60
 458 01f6 7FF647AF 		bls	.L1
 221:Core/BSP/multi_button.c **** 			handle->repeat = 0;     // clear repeat count for new press cycle
 459              		.loc 1 221 4 is_stmt 1 view .LVU153
 221:Core/BSP/multi_button.c **** 			handle->repeat = 0;     // clear repeat count for new press cycle
 460              		.loc 1 221 18 is_stmt 0 view .LVU154
 461 01fa 0022     		movs	r2, #0
 462 01fc 2280     		strh	r2, [r4]	@ movhi
 222:Core/BSP/multi_button.c **** 			handle->state = BTN_STATE_PRESS;
 463              		.loc 1 222 4 is_stmt 1 view .LVU155
 222:Core/BSP/multi_button.c **** 			handle->state = BTN_STATE_PRESS;
 464              		.loc 1 222 19 is_stmt 0 view .LVU156
 465 01fe A378     		ldrb	r3, [r4, #2]	@ zero_extendqisi2
 466 0200 62F30303 		bfi	r3, r2, #0, #4
 467 0204 A370     		strb	r3, [r4, #2]
 223:Core/BSP/multi_button.c **** 		}
 468              		.loc 1 223 4 is_stmt 1 view .LVU157
 223:Core/BSP/multi_button.c **** 		}
 469              		.loc 1 223 18 is_stmt 0 view .LVU158
 470 0206 E378     		ldrb	r3, [r4, #3]	@ zero_extendqisi2
 471 0208 0122     		movs	r2, #1
 472 020a 62F30203 		bfi	r3, r2, #0, #3
 473 020e E370     		strb	r3, [r4, #3]
 474 0210 3AE7     		b	.L1
 475              	.L6:
 228:Core/BSP/multi_button.c **** 			// Continue holding
 476              		.loc 1 228 3 is_stmt 1 view .LVU159
 228:Core/BSP/multi_button.c **** 			// Continue holding
 477              		.loc 1 228 13 is_stmt 0 view .LVU160
 478 0212 E378     		ldrb	r3, [r4, #3]	@ zero_extendqisi2
 228:Core/BSP/multi_button.c **** 			// Continue holding
 479              		.loc 1 228 37 view .LVU161
 480 0214 C3F38012 		ubfx	r2, r3, #6, #1
 228:Core/BSP/multi_button.c **** 			// Continue holding
 481              		.loc 1 228 6 view .LVU162
 482 0218 B2EBD31F 		cmp	r2, r3, lsr #7
ARM GAS  C:\Users\ASUS\AppData\Local\Temp\ccz5ObUH.s 			page 16


 483 021c 0ED0     		beq	.L34
 234:Core/BSP/multi_button.c **** 			EVENT_CB(BTN_PRESS_UP);
 484              		.loc 1 234 4 is_stmt 1 view .LVU163
 234:Core/BSP/multi_button.c **** 			EVENT_CB(BTN_PRESS_UP);
 485              		.loc 1 234 18 is_stmt 0 view .LVU164
 486 021e A378     		ldrb	r3, [r4, #2]	@ zero_extendqisi2
 487 0220 0122     		movs	r2, #1
 488 0222 62F30713 		bfi	r3, r2, #4, #4
 489 0226 A370     		strb	r3, [r4, #2]
 235:Core/BSP/multi_button.c **** 			handle->state = BTN_STATE_IDLE;
 490              		.loc 1 235 4 is_stmt 1 view .LVU165
 235:Core/BSP/multi_button.c **** 			handle->state = BTN_STATE_IDLE;
 491              		.loc 1 235 4 view .LVU166
 492 0228 2369     		ldr	r3, [r4, #16]
 493 022a 13B1     		cbz	r3, .L28
 235:Core/BSP/multi_button.c **** 			handle->state = BTN_STATE_IDLE;
 494              		.loc 1 235 4 discriminator 1 view .LVU167
 495 022c A16A     		ldr	r1, [r4, #40]
 496 022e 2046     		mov	r0, r4
 497              	.LVL30:
 235:Core/BSP/multi_button.c **** 			handle->state = BTN_STATE_IDLE;
 498              		.loc 1 235 4 is_stmt 0 discriminator 1 view .LVU168
 499 0230 9847     		blx	r3
 500              	.LVL31:
 501              	.L28:
 235:Core/BSP/multi_button.c **** 			handle->state = BTN_STATE_IDLE;
 502              		.loc 1 235 4 is_stmt 1 discriminator 3 view .LVU169
 236:Core/BSP/multi_button.c **** 		}
 503              		.loc 1 236 4 discriminator 3 view .LVU170
 236:Core/BSP/multi_button.c **** 		}
 504              		.loc 1 236 18 is_stmt 0 discriminator 3 view .LVU171
 505 0232 E378     		ldrb	r3, [r4, #3]	@ zero_extendqisi2
 506 0234 6FF30203 		bfc	r3, #0, #3
 507 0238 E370     		strb	r3, [r4, #3]
 508 023a 25E7     		b	.L1
 509              	.LVL32:
 510              	.L34:
 230:Core/BSP/multi_button.c **** 			EVENT_CB(BTN_LONG_PRESS_HOLD);
 511              		.loc 1 230 4 is_stmt 1 view .LVU172
 230:Core/BSP/multi_button.c **** 			EVENT_CB(BTN_LONG_PRESS_HOLD);
 512              		.loc 1 230 18 is_stmt 0 view .LVU173
 513 023c A378     		ldrb	r3, [r4, #2]	@ zero_extendqisi2
 514 023e 0622     		movs	r2, #6
 515 0240 62F30713 		bfi	r3, r2, #4, #4
 516 0244 A370     		strb	r3, [r4, #2]
 231:Core/BSP/multi_button.c **** 		} else {
 517              		.loc 1 231 4 is_stmt 1 view .LVU174
 231:Core/BSP/multi_button.c **** 		} else {
 518              		.loc 1 231 4 view .LVU175
 519 0246 636A     		ldr	r3, [r4, #36]
 520 0248 002B     		cmp	r3, #0
 521 024a 3FF41DAF 		beq	.L1
 231:Core/BSP/multi_button.c **** 		} else {
 522              		.loc 1 231 4 discriminator 1 view .LVU176
 523 024e A16A     		ldr	r1, [r4, #40]
 524 0250 2046     		mov	r0, r4
 525              	.LVL33:
ARM GAS  C:\Users\ASUS\AppData\Local\Temp\ccz5ObUH.s 			page 17


 231:Core/BSP/multi_button.c **** 		} else {
 526              		.loc 1 231 4 is_stmt 0 discriminator 1 view .LVU177
 527 0252 9847     		blx	r3
 528              	.LVL34:
 529 0254 18E7     		b	.L1
 530              	.LVL35:
 531              	.L5:
 242:Core/BSP/multi_button.c **** 		break;
 532              		.loc 1 242 3 is_stmt 1 view .LVU178
 242:Core/BSP/multi_button.c **** 		break;
 533              		.loc 1 242 17 is_stmt 0 view .LVU179
 534 0256 E378     		ldrb	r3, [r4, #3]	@ zero_extendqisi2
 535 0258 6FF30203 		bfc	r3, #0, #3
 536 025c E370     		strb	r3, [r4, #3]
 243:Core/BSP/multi_button.c **** 	}
 537              		.loc 1 243 3 is_stmt 1 view .LVU180
 538              		.loc 1 245 1 is_stmt 0 view .LVU181
 539 025e 13E7     		b	.L1
 540              		.cfi_endproc
 541              	.LFE8:
 543              		.section	.text.button_init,"ax",%progbits
 544              		.align	1
 545              		.global	button_init
 546              		.syntax unified
 547              		.thumb
 548              		.thumb_func
 550              	button_init:
 551              	.LVL36:
 552              	.LFB0:
  27:Core/BSP/multi_button.c **** 	if (!handle || !pin_level) return;  // parameter validation
 553              		.loc 1 27 1 is_stmt 1 view -0
 554              		.cfi_startproc
 555              		@ args = 0, pretend = 0, frame = 0
 556              		@ frame_needed = 0, uses_anonymous_args = 0
  28:Core/BSP/multi_button.c **** 
 557              		.loc 1 28 2 view .LVU183
  28:Core/BSP/multi_button.c **** 
 558              		.loc 1 28 5 is_stmt 0 view .LVU184
 559 0000 E0B1     		cbz	r0, .L38
  27:Core/BSP/multi_button.c **** 	if (!handle || !pin_level) return;  // parameter validation
 560              		.loc 1 27 1 discriminator 2 view .LVU185
 561 0002 F8B5     		push	{r3, r4, r5, r6, r7, lr}
 562              	.LCFI1:
 563              		.cfi_def_cfa_offset 24
 564              		.cfi_offset 3, -24
 565              		.cfi_offset 4, -20
 566              		.cfi_offset 5, -16
 567              		.cfi_offset 6, -12
 568              		.cfi_offset 7, -8
 569              		.cfi_offset 14, -4
 570 0004 0D46     		mov	r5, r1
 571 0006 1646     		mov	r6, r2
 572 0008 1F46     		mov	r7, r3
 573 000a 0446     		mov	r4, r0
  28:Core/BSP/multi_button.c **** 
 574              		.loc 1 28 14 discriminator 2 view .LVU186
 575 000c A9B1     		cbz	r1, .L35
ARM GAS  C:\Users\ASUS\AppData\Local\Temp\ccz5ObUH.s 			page 18


  30:Core/BSP/multi_button.c **** 	handle->event = (uint8_t)BTN_NONE_PRESS;
 576              		.loc 1 30 2 is_stmt 1 view .LVU187
 577 000e 3022     		movs	r2, #48
 578              	.LVL37:
  30:Core/BSP/multi_button.c **** 	handle->event = (uint8_t)BTN_NONE_PRESS;
 579              		.loc 1 30 2 is_stmt 0 view .LVU188
 580 0010 0021     		movs	r1, #0
 581              	.LVL38:
  30:Core/BSP/multi_button.c **** 	handle->event = (uint8_t)BTN_NONE_PRESS;
 582              		.loc 1 30 2 view .LVU189
 583 0012 FFF7FEFF 		bl	memset
 584              	.LVL39:
  31:Core/BSP/multi_button.c **** 	handle->hal_button_level = pin_level;
 585              		.loc 1 31 2 is_stmt 1 view .LVU190
  31:Core/BSP/multi_button.c **** 	handle->hal_button_level = pin_level;
 586              		.loc 1 31 16 is_stmt 0 view .LVU191
 587 0016 A378     		ldrb	r3, [r4, #2]	@ zero_extendqisi2
 588 0018 0822     		movs	r2, #8
 589 001a 62F30713 		bfi	r3, r2, #4, #4
 590 001e A370     		strb	r3, [r4, #2]
  32:Core/BSP/multi_button.c **** 	handle->button_level = !active_level;  // initialize to opposite of active level
 591              		.loc 1 32 2 is_stmt 1 view .LVU192
  32:Core/BSP/multi_button.c **** 	handle->button_level = !active_level;  // initialize to opposite of active level
 592              		.loc 1 32 27 is_stmt 0 view .LVU193
 593 0020 A560     		str	r5, [r4, #8]
  33:Core/BSP/multi_button.c **** 	handle->active_level = active_level;
 594              		.loc 1 33 2 is_stmt 1 view .LVU194
  33:Core/BSP/multi_button.c **** 	handle->active_level = active_level;
 595              		.loc 1 33 25 is_stmt 0 view .LVU195
 596 0022 B6FA86F1 		clz	r1, r6
 597 0026 4909     		lsrs	r1, r1, #5
  33:Core/BSP/multi_button.c **** 	handle->active_level = active_level;
 598              		.loc 1 33 23 view .LVU196
 599 0028 E378     		ldrb	r3, [r4, #3]	@ zero_extendqisi2
 600 002a 61F3C713 		bfi	r3, r1, #7, #1
 601 002e E370     		strb	r3, [r4, #3]
  34:Core/BSP/multi_button.c **** 	handle->button_id = button_id;
 602              		.loc 1 34 2 is_stmt 1 view .LVU197
  34:Core/BSP/multi_button.c **** 	handle->button_id = button_id;
 603              		.loc 1 34 23 is_stmt 0 view .LVU198
 604 0030 DBB2     		uxtb	r3, r3
 605 0032 66F38613 		bfi	r3, r6, #6, #1
 606              	.LVL40:
  34:Core/BSP/multi_button.c **** 	handle->button_id = button_id;
 607              		.loc 1 34 23 view .LVU199
 608 0036 E370     		strb	r3, [r4, #3]
  35:Core/BSP/multi_button.c **** 	handle->state = BTN_STATE_IDLE;
 609              		.loc 1 35 2 is_stmt 1 view .LVU200
  35:Core/BSP/multi_button.c **** 	handle->state = BTN_STATE_IDLE;
 610              		.loc 1 35 20 is_stmt 0 view .LVU201
 611 0038 2771     		strb	r7, [r4, #4]
  36:Core/BSP/multi_button.c **** 	// user_data is zeroed by memset
 612              		.loc 1 36 2 is_stmt 1 view .LVU202
 613              	.L35:
  38:Core/BSP/multi_button.c **** 
 614              		.loc 1 38 1 is_stmt 0 view .LVU203
 615 003a F8BD     		pop	{r3, r4, r5, r6, r7, pc}
ARM GAS  C:\Users\ASUS\AppData\Local\Temp\ccz5ObUH.s 			page 19


 616              	.LVL41:
 617              	.L38:
 618              	.LCFI2:
 619              		.cfi_def_cfa_offset 0
 620              		.cfi_restore 3
 621              		.cfi_restore 4
 622              		.cfi_restore 5
 623              		.cfi_restore 6
 624              		.cfi_restore 7
 625              		.cfi_restore 14
  38:Core/BSP/multi_button.c **** 
 626              		.loc 1 38 1 view .LVU204
 627 003c 7047     		bx	lr
 628              		.cfi_endproc
 629              	.LFE0:
 631              		.section	.text.button_attach,"ax",%progbits
 632              		.align	1
 633              		.global	button_attach
 634              		.syntax unified
 635              		.thumb
 636              		.thumb_func
 638              	button_attach:
 639              	.LVL42:
 640              	.LFB1:
  49:Core/BSP/multi_button.c **** 	if (!handle || event >= BTN_EVENT_COUNT) return;  // parameter validation
 641              		.loc 1 49 1 is_stmt 1 view -0
 642              		.cfi_startproc
 643              		@ args = 0, pretend = 0, frame = 0
 644              		@ frame_needed = 0, uses_anonymous_args = 0
 645              		@ link register save eliminated.
  50:Core/BSP/multi_button.c **** 	handle->cb[event] = cb;
 646              		.loc 1 50 2 view .LVU206
  50:Core/BSP/multi_button.c **** 	handle->cb[event] = cb;
 647              		.loc 1 50 5 is_stmt 0 view .LVU207
 648 0000 30B1     		cbz	r0, .L41
  50:Core/BSP/multi_button.c **** 	handle->cb[event] = cb;
 649              		.loc 1 50 14 discriminator 2 view .LVU208
 650 0002 0629     		cmp	r1, #6
 651 0004 04D8     		bhi	.L41
  51:Core/BSP/multi_button.c **** 	handle->user_data = user_data;
 652              		.loc 1 51 2 is_stmt 1 view .LVU209
  51:Core/BSP/multi_button.c **** 	handle->user_data = user_data;
 653              		.loc 1 51 20 is_stmt 0 view .LVU210
 654 0006 0231     		adds	r1, r1, #2
 655              	.LVL43:
  51:Core/BSP/multi_button.c **** 	handle->user_data = user_data;
 656              		.loc 1 51 20 view .LVU211
 657 0008 00EB8101 		add	r1, r0, r1, lsl #2
 658 000c 4A60     		str	r2, [r1, #4]
  52:Core/BSP/multi_button.c **** }
 659              		.loc 1 52 2 is_stmt 1 view .LVU212
  52:Core/BSP/multi_button.c **** }
 660              		.loc 1 52 20 is_stmt 0 view .LVU213
 661 000e 8362     		str	r3, [r0, #40]
 662              	.L41:
  53:Core/BSP/multi_button.c **** 
 663              		.loc 1 53 1 view .LVU214
ARM GAS  C:\Users\ASUS\AppData\Local\Temp\ccz5ObUH.s 			page 20


 664 0010 7047     		bx	lr
 665              		.cfi_endproc
 666              	.LFE1:
 668              		.section	.text.button_detach,"ax",%progbits
 669              		.align	1
 670              		.global	button_detach
 671              		.syntax unified
 672              		.thumb
 673              		.thumb_func
 675              	button_detach:
 676              	.LVL44:
 677              	.LFB2:
  62:Core/BSP/multi_button.c **** 	if (!handle || event >= BTN_EVENT_COUNT) return;  // parameter validation
 678              		.loc 1 62 1 is_stmt 1 view -0
 679              		.cfi_startproc
 680              		@ args = 0, pretend = 0, frame = 0
 681              		@ frame_needed = 0, uses_anonymous_args = 0
 682              		@ link register save eliminated.
  63:Core/BSP/multi_button.c **** 	handle->cb[event] = NULL;
 683              		.loc 1 63 2 view .LVU216
  63:Core/BSP/multi_button.c **** 	handle->cb[event] = NULL;
 684              		.loc 1 63 5 is_stmt 0 view .LVU217
 685 0000 30B1     		cbz	r0, .L43
  63:Core/BSP/multi_button.c **** 	handle->cb[event] = NULL;
 686              		.loc 1 63 14 discriminator 2 view .LVU218
 687 0002 0629     		cmp	r1, #6
 688 0004 04D8     		bhi	.L43
  64:Core/BSP/multi_button.c **** }
 689              		.loc 1 64 2 is_stmt 1 view .LVU219
  64:Core/BSP/multi_button.c **** }
 690              		.loc 1 64 20 is_stmt 0 view .LVU220
 691 0006 0231     		adds	r1, r1, #2
 692              	.LVL45:
  64:Core/BSP/multi_button.c **** }
 693              		.loc 1 64 20 view .LVU221
 694 0008 00EB8101 		add	r1, r0, r1, lsl #2
 695 000c 0023     		movs	r3, #0
 696 000e 4B60     		str	r3, [r1, #4]
 697              	.L43:
  65:Core/BSP/multi_button.c **** 
 698              		.loc 1 65 1 view .LVU222
 699 0010 7047     		bx	lr
 700              		.cfi_endproc
 701              	.LFE2:
 703              		.section	.text.button_get_event,"ax",%progbits
 704              		.align	1
 705              		.global	button_get_event
 706              		.syntax unified
 707              		.thumb
 708              		.thumb_func
 710              	button_get_event:
 711              	.LVL46:
 712              	.LFB3:
  73:Core/BSP/multi_button.c **** 	if (!handle) return BTN_NONE_PRESS;
 713              		.loc 1 73 1 is_stmt 1 view -0
 714              		.cfi_startproc
 715              		@ args = 0, pretend = 0, frame = 0
ARM GAS  C:\Users\ASUS\AppData\Local\Temp\ccz5ObUH.s 			page 21


 716              		@ frame_needed = 0, uses_anonymous_args = 0
 717              		@ link register save eliminated.
  74:Core/BSP/multi_button.c **** 	return (ButtonEvent)(handle->event);
 718              		.loc 1 74 2 view .LVU224
  74:Core/BSP/multi_button.c **** 	return (ButtonEvent)(handle->event);
 719              		.loc 1 74 5 is_stmt 0 view .LVU225
 720 0000 10B1     		cbz	r0, .L47
  75:Core/BSP/multi_button.c **** }
 721              		.loc 1 75 2 is_stmt 1 view .LVU226
  75:Core/BSP/multi_button.c **** }
 722              		.loc 1 75 29 is_stmt 0 view .LVU227
 723 0002 8078     		ldrb	r0, [r0, #2]	@ zero_extendqisi2
 724              	.LVL47:
  75:Core/BSP/multi_button.c **** }
 725              		.loc 1 75 29 view .LVU228
 726 0004 0009     		lsrs	r0, r0, #4
  75:Core/BSP/multi_button.c **** }
 727              		.loc 1 75 9 view .LVU229
 728 0006 7047     		bx	lr
 729              	.LVL48:
 730              	.L47:
  74:Core/BSP/multi_button.c **** 	return (ButtonEvent)(handle->event);
 731              		.loc 1 74 22 view .LVU230
 732 0008 0820     		movs	r0, #8
 733              	.LVL49:
  76:Core/BSP/multi_button.c **** 
 734              		.loc 1 76 1 view .LVU231
 735 000a 7047     		bx	lr
 736              		.cfi_endproc
 737              	.LFE3:
 739              		.section	.text.button_get_repeat_count,"ax",%progbits
 740              		.align	1
 741              		.global	button_get_repeat_count
 742              		.syntax unified
 743              		.thumb
 744              		.thumb_func
 746              	button_get_repeat_count:
 747              	.LVL50:
 748              	.LFB4:
  84:Core/BSP/multi_button.c **** 	if (!handle) return 0;
 749              		.loc 1 84 1 is_stmt 1 view -0
 750              		.cfi_startproc
 751              		@ args = 0, pretend = 0, frame = 0
 752              		@ frame_needed = 0, uses_anonymous_args = 0
 753              		@ link register save eliminated.
  85:Core/BSP/multi_button.c **** 	return handle->repeat;
 754              		.loc 1 85 2 view .LVU233
  85:Core/BSP/multi_button.c **** 	return handle->repeat;
 755              		.loc 1 85 5 is_stmt 0 view .LVU234
 756 0000 18B1     		cbz	r0, .L50
  86:Core/BSP/multi_button.c **** }
 757              		.loc 1 86 2 is_stmt 1 view .LVU235
  86:Core/BSP/multi_button.c **** }
 758              		.loc 1 86 15 is_stmt 0 view .LVU236
 759 0002 8078     		ldrb	r0, [r0, #2]	@ zero_extendqisi2
 760              	.LVL51:
  86:Core/BSP/multi_button.c **** }
ARM GAS  C:\Users\ASUS\AppData\Local\Temp\ccz5ObUH.s 			page 22


 761              		.loc 1 86 15 view .LVU237
 762 0004 00F00F00 		and	r0, r0, #15
 763 0008 7047     		bx	lr
 764              	.LVL52:
 765              	.L50:
  85:Core/BSP/multi_button.c **** 	return handle->repeat;
 766              		.loc 1 85 22 view .LVU238
 767 000a 0020     		movs	r0, #0
 768              	.LVL53:
  87:Core/BSP/multi_button.c **** 
 769              		.loc 1 87 1 view .LVU239
 770 000c 7047     		bx	lr
 771              		.cfi_endproc
 772              	.LFE4:
 774              		.section	.text.button_reset,"ax",%progbits
 775              		.align	1
 776              		.global	button_reset
 777              		.syntax unified
 778              		.thumb
 779              		.thumb_func
 781              	button_reset:
 782              	.LVL54:
 783              	.LFB5:
  95:Core/BSP/multi_button.c **** 	if (!handle) return;
 784              		.loc 1 95 1 is_stmt 1 view -0
 785              		.cfi_startproc
 786              		@ args = 0, pretend = 0, frame = 0
 787              		@ frame_needed = 0, uses_anonymous_args = 0
 788              		@ link register save eliminated.
  96:Core/BSP/multi_button.c **** 	handle->state = BTN_STATE_IDLE;
 789              		.loc 1 96 2 view .LVU241
  96:Core/BSP/multi_button.c **** 	handle->state = BTN_STATE_IDLE;
 790              		.loc 1 96 5 is_stmt 0 view .LVU242
 791 0000 0346     		mov	r3, r0
 792 0002 90B1     		cbz	r0, .L51
  97:Core/BSP/multi_button.c **** 	handle->ticks = 0;
 793              		.loc 1 97 2 is_stmt 1 view .LVU243
  97:Core/BSP/multi_button.c **** 	handle->ticks = 0;
 794              		.loc 1 97 16 is_stmt 0 view .LVU244
 795 0004 C278     		ldrb	r2, [r0, #3]	@ zero_extendqisi2
 796 0006 6FF30202 		bfc	r2, #0, #3
 797 000a C270     		strb	r2, [r0, #3]
  98:Core/BSP/multi_button.c **** 	handle->repeat = 0;
 798              		.loc 1 98 2 is_stmt 1 view .LVU245
  98:Core/BSP/multi_button.c **** 	handle->repeat = 0;
 799              		.loc 1 98 16 is_stmt 0 view .LVU246
 800 000c 0022     		movs	r2, #0
 801 000e 0280     		strh	r2, [r0]	@ movhi
  99:Core/BSP/multi_button.c **** 	handle->event = (uint8_t)BTN_NONE_PRESS;
 802              		.loc 1 99 2 is_stmt 1 view .LVU247
  99:Core/BSP/multi_button.c **** 	handle->event = (uint8_t)BTN_NONE_PRESS;
 803              		.loc 1 99 17 is_stmt 0 view .LVU248
 804 0010 8178     		ldrb	r1, [r0, #2]	@ zero_extendqisi2
 805 0012 62F30301 		bfi	r1, r2, #0, #4
 806 0016 8170     		strb	r1, [r0, #2]
 100:Core/BSP/multi_button.c **** 	handle->debounce_cnt = 0;
 807              		.loc 1 100 2 is_stmt 1 view .LVU249
ARM GAS  C:\Users\ASUS\AppData\Local\Temp\ccz5ObUH.s 			page 23


 100:Core/BSP/multi_button.c **** 	handle->debounce_cnt = 0;
 808              		.loc 1 100 16 is_stmt 0 view .LVU250
 809 0018 C9B2     		uxtb	r1, r1
 810 001a 0820     		movs	r0, #8
 811              	.LVL55:
 100:Core/BSP/multi_button.c **** 	handle->debounce_cnt = 0;
 812              		.loc 1 100 16 view .LVU251
 813 001c 60F30711 		bfi	r1, r0, #4, #4
 814 0020 9970     		strb	r1, [r3, #2]
 101:Core/BSP/multi_button.c **** }
 815              		.loc 1 101 2 is_stmt 1 view .LVU252
 101:Core/BSP/multi_button.c **** }
 816              		.loc 1 101 23 is_stmt 0 view .LVU253
 817 0022 D978     		ldrb	r1, [r3, #3]	@ zero_extendqisi2
 818 0024 62F3C501 		bfi	r1, r2, #3, #3
 819 0028 D970     		strb	r1, [r3, #3]
 820              	.L51:
 102:Core/BSP/multi_button.c **** 
 821              		.loc 1 102 1 view .LVU254
 822 002a 7047     		bx	lr
 823              		.cfi_endproc
 824              	.LFE5:
 826              		.section	.text.button_is_pressed,"ax",%progbits
 827              		.align	1
 828              		.global	button_is_pressed
 829              		.syntax unified
 830              		.thumb
 831              		.thumb_func
 833              	button_is_pressed:
 834              	.LVL56:
 835              	.LFB6:
 110:Core/BSP/multi_button.c **** 	if (!handle) return -1;
 836              		.loc 1 110 1 is_stmt 1 view -0
 837              		.cfi_startproc
 838              		@ args = 0, pretend = 0, frame = 0
 839              		@ frame_needed = 0, uses_anonymous_args = 0
 840              		@ link register save eliminated.
 111:Core/BSP/multi_button.c **** 	return (handle->button_level == handle->active_level) ? 1 : 0;
 841              		.loc 1 111 2 view .LVU256
 111:Core/BSP/multi_button.c **** 	return (handle->button_level == handle->active_level) ? 1 : 0;
 842              		.loc 1 111 5 is_stmt 0 view .LVU257
 843 0000 40B1     		cbz	r0, .L55
 112:Core/BSP/multi_button.c **** }
 844              		.loc 1 112 2 is_stmt 1 view .LVU258
 112:Core/BSP/multi_button.c **** }
 845              		.loc 1 112 16 is_stmt 0 view .LVU259
 846 0002 C378     		ldrb	r3, [r0, #3]	@ zero_extendqisi2
 112:Core/BSP/multi_button.c **** }
 847              		.loc 1 112 40 view .LVU260
 848 0004 C3F38012 		ubfx	r2, r3, #6, #1
 112:Core/BSP/multi_button.c **** }
 849              		.loc 1 112 60 view .LVU261
 850 0008 B2EBD31F 		cmp	r2, r3, lsr #7
 851 000c 0CBF     		ite	eq
 852 000e 0120     		moveq	r0, #1
 853              	.LVL57:
 112:Core/BSP/multi_button.c **** }
ARM GAS  C:\Users\ASUS\AppData\Local\Temp\ccz5ObUH.s 			page 24


 854              		.loc 1 112 60 view .LVU262
 855 0010 0020     		movne	r0, #0
 856 0012 7047     		bx	lr
 857              	.LVL58:
 858              	.L55:
 111:Core/BSP/multi_button.c **** 	return (handle->button_level == handle->active_level) ? 1 : 0;
 859              		.loc 1 111 22 view .LVU263
 860 0014 4FF0FF30 		mov	r0, #-1
 861              	.LVL59:
 113:Core/BSP/multi_button.c **** 
 862              		.loc 1 113 1 view .LVU264
 863 0018 7047     		bx	lr
 864              		.cfi_endproc
 865              	.LFE6:
 867              		.section	.text.button_start,"ax",%progbits
 868              		.align	1
 869              		.global	button_start
 870              		.syntax unified
 871              		.thumb
 872              		.thumb_func
 874              	button_start:
 875              	.LVL60:
 876              	.LFB9:
 246:Core/BSP/multi_button.c **** 
 247:Core/BSP/multi_button.c **** /**
 248:Core/BSP/multi_button.c ****   * @brief  Start the button work, add the handle into work list
 249:Core/BSP/multi_button.c ****   * @param  handle: target handle struct
 250:Core/BSP/multi_button.c ****   * @retval 0: succeed, -1: already exist, -2: invalid parameter
 251:Core/BSP/multi_button.c ****   */
 252:Core/BSP/multi_button.c **** int button_start(Button* handle)
 253:Core/BSP/multi_button.c **** {
 877              		.loc 1 253 1 is_stmt 1 view -0
 878              		.cfi_startproc
 879              		@ args = 0, pretend = 0, frame = 0
 880              		@ frame_needed = 0, uses_anonymous_args = 0
 881              		@ link register save eliminated.
 254:Core/BSP/multi_button.c **** 	if (!handle) return -2;  // invalid parameter
 882              		.loc 1 254 2 view .LVU266
 883              		.loc 1 254 5 is_stmt 0 view .LVU267
 884 0000 0246     		mov	r2, r0
 885 0002 60B1     		cbz	r0, .L60
 255:Core/BSP/multi_button.c **** 
 256:Core/BSP/multi_button.c **** 	MULTIBUTTON_LOCK();
 886              		.loc 1 256 20 is_stmt 1 view .LVU268
 257:Core/BSP/multi_button.c **** 	Button* target = head_handle;
 887              		.loc 1 257 2 view .LVU269
 888              		.loc 1 257 10 is_stmt 0 view .LVU270
 889 0004 094B     		ldr	r3, .L63
 890 0006 1968     		ldr	r1, [r3]
 891              	.LVL61:
 258:Core/BSP/multi_button.c **** 	while (target) {
 892              		.loc 1 258 2 is_stmt 1 view .LVU271
 257:Core/BSP/multi_button.c **** 	Button* target = head_handle;
 893              		.loc 1 257 10 is_stmt 0 view .LVU272
 894 0008 0B46     		mov	r3, r1
 895              	.LVL62:
 896              	.L58:
ARM GAS  C:\Users\ASUS\AppData\Local\Temp\ccz5ObUH.s 			page 25


 897              		.loc 1 258 8 is_stmt 1 view .LVU273
 898 000a 1BB1     		cbz	r3, .L62
 259:Core/BSP/multi_button.c **** 		if (target == handle) {
 899              		.loc 1 259 3 view .LVU274
 900              		.loc 1 259 6 is_stmt 0 view .LVU275
 901 000c 9342     		cmp	r3, r2
 902 000e 09D0     		beq	.L61
 260:Core/BSP/multi_button.c **** 			MULTIBUTTON_UNLOCK();
 261:Core/BSP/multi_button.c **** 			return -1;  // already exist
 262:Core/BSP/multi_button.c **** 		}
 263:Core/BSP/multi_button.c **** 		target = target->next;
 903              		.loc 1 263 3 is_stmt 1 view .LVU276
 904              		.loc 1 263 10 is_stmt 0 view .LVU277
 905 0010 DB6A     		ldr	r3, [r3, #44]
 906              	.LVL63:
 907              		.loc 1 263 10 view .LVU278
 908 0012 FAE7     		b	.L58
 909              	.L62:
 264:Core/BSP/multi_button.c **** 	}
 265:Core/BSP/multi_button.c **** 
 266:Core/BSP/multi_button.c **** 	handle->next = head_handle;
 910              		.loc 1 266 2 is_stmt 1 view .LVU279
 911              		.loc 1 266 15 is_stmt 0 view .LVU280
 912 0014 D162     		str	r1, [r2, #44]
 267:Core/BSP/multi_button.c **** 	head_handle = handle;
 913              		.loc 1 267 2 is_stmt 1 view .LVU281
 914              		.loc 1 267 14 is_stmt 0 view .LVU282
 915 0016 054B     		ldr	r3, .L63
 916              	.LVL64:
 917              		.loc 1 267 14 view .LVU283
 918 0018 1A60     		str	r2, [r3]
 268:Core/BSP/multi_button.c **** 	MULTIBUTTON_UNLOCK();
 919              		.loc 1 268 22 is_stmt 1 view .LVU284
 269:Core/BSP/multi_button.c **** 	return 0;
 920              		.loc 1 269 2 view .LVU285
 921              		.loc 1 269 9 is_stmt 0 view .LVU286
 922 001a 0020     		movs	r0, #0
 923              	.LVL65:
 924              		.loc 1 269 9 view .LVU287
 925 001c 7047     		bx	lr
 926              	.LVL66:
 927              	.L60:
 254:Core/BSP/multi_button.c **** 
 928              		.loc 1 254 22 view .LVU288
 929 001e 6FF00100 		mvn	r0, #1
 930              	.LVL67:
 254:Core/BSP/multi_button.c **** 
 931              		.loc 1 254 22 view .LVU289
 932 0022 7047     		bx	lr
 933              	.LVL68:
 934              	.L61:
 261:Core/BSP/multi_button.c **** 		}
 935              		.loc 1 261 11 view .LVU290
 936 0024 4FF0FF30 		mov	r0, #-1
 937              	.LVL69:
 270:Core/BSP/multi_button.c **** }
 938              		.loc 1 270 1 view .LVU291
ARM GAS  C:\Users\ASUS\AppData\Local\Temp\ccz5ObUH.s 			page 26


 939 0028 7047     		bx	lr
 940              	.L64:
 941 002a 00BF     		.align	2
 942              	.L63:
 943 002c 00000000 		.word	.LANCHOR0
 944              		.cfi_endproc
 945              	.LFE9:
 947              		.section	.text.button_stop,"ax",%progbits
 948              		.align	1
 949              		.global	button_stop
 950              		.syntax unified
 951              		.thumb
 952              		.thumb_func
 954              	button_stop:
 955              	.LVL70:
 956              	.LFB10:
 271:Core/BSP/multi_button.c **** 
 272:Core/BSP/multi_button.c **** /**
 273:Core/BSP/multi_button.c ****   * @brief  Stop the button work, remove the handle from work list
 274:Core/BSP/multi_button.c ****   * @param  handle: target handle struct
 275:Core/BSP/multi_button.c ****   * @retval None
 276:Core/BSP/multi_button.c ****   */
 277:Core/BSP/multi_button.c **** void button_stop(Button* handle)
 278:Core/BSP/multi_button.c **** {
 957              		.loc 1 278 1 is_stmt 1 view -0
 958              		.cfi_startproc
 959              		@ args = 0, pretend = 0, frame = 0
 960              		@ frame_needed = 0, uses_anonymous_args = 0
 961              		@ link register save eliminated.
 279:Core/BSP/multi_button.c **** 	if (!handle) return;  // parameter validation
 962              		.loc 1 279 2 view .LVU293
 963              		.loc 1 279 5 is_stmt 0 view .LVU294
 964 0000 0146     		mov	r1, r0
 965 0002 60B1     		cbz	r0, .L65
 280:Core/BSP/multi_button.c **** 
 281:Core/BSP/multi_button.c **** 	MULTIBUTTON_LOCK();
 282:Core/BSP/multi_button.c **** 	Button** curr;
 283:Core/BSP/multi_button.c **** 	for (curr = &head_handle; *curr; ) {
 966              		.loc 1 283 12 view .LVU295
 967 0004 064A     		ldr	r2, .L71
 968              	.L67:
 969              	.LVL71:
 970              		.loc 1 283 28 is_stmt 1 discriminator 1 view .LVU296
 971 0006 1368     		ldr	r3, [r2]
 972              		.loc 1 283 2 is_stmt 0 discriminator 1 view .LVU297
 973 0008 4BB1     		cbz	r3, .L65
 974              	.LBB6:
 284:Core/BSP/multi_button.c **** 		Button* entry = *curr;
 975              		.loc 1 284 3 is_stmt 1 view .LVU298
 976              	.LVL72:
 285:Core/BSP/multi_button.c **** 		if (entry == handle) {
 977              		.loc 1 285 3 view .LVU299
 978              		.loc 1 285 6 is_stmt 0 view .LVU300
 979 000a 8B42     		cmp	r3, r1
 980 000c 02D0     		beq	.L70
 286:Core/BSP/multi_button.c **** 			*curr = entry->next;
 287:Core/BSP/multi_button.c **** 			entry->next = NULL;  // clear next pointer
ARM GAS  C:\Users\ASUS\AppData\Local\Temp\ccz5ObUH.s 			page 27


 288:Core/BSP/multi_button.c **** 			MULTIBUTTON_UNLOCK();
 289:Core/BSP/multi_button.c **** 			return;
 290:Core/BSP/multi_button.c **** 		} else {
 291:Core/BSP/multi_button.c **** 			curr = &entry->next;
 981              		.loc 1 291 4 is_stmt 1 view .LVU301
 982              		.loc 1 291 9 is_stmt 0 view .LVU302
 983 000e 03F12C02 		add	r2, r3, #44
 984              	.LVL73:
 985              		.loc 1 291 9 view .LVU303
 986 0012 F8E7     		b	.L67
 987              	.L70:
 286:Core/BSP/multi_button.c **** 			*curr = entry->next;
 988              		.loc 1 286 4 is_stmt 1 view .LVU304
 286:Core/BSP/multi_button.c **** 			*curr = entry->next;
 989              		.loc 1 286 17 is_stmt 0 view .LVU305
 990 0014 D96A     		ldr	r1, [r3, #44]
 286:Core/BSP/multi_button.c **** 			*curr = entry->next;
 991              		.loc 1 286 10 view .LVU306
 992 0016 1160     		str	r1, [r2]
 287:Core/BSP/multi_button.c **** 			MULTIBUTTON_UNLOCK();
 993              		.loc 1 287 4 is_stmt 1 view .LVU307
 287:Core/BSP/multi_button.c **** 			MULTIBUTTON_UNLOCK();
 994              		.loc 1 287 16 is_stmt 0 view .LVU308
 995 0018 0022     		movs	r2, #0
 996              	.LVL74:
 287:Core/BSP/multi_button.c **** 			MULTIBUTTON_UNLOCK();
 997              		.loc 1 287 16 view .LVU309
 998 001a DA62     		str	r2, [r3, #44]
 288:Core/BSP/multi_button.c **** 			return;
 999              		.loc 1 288 24 is_stmt 1 view .LVU310
 289:Core/BSP/multi_button.c **** 		} else {
 1000              		.loc 1 289 4 view .LVU311
 1001 001c 7047     		bx	lr
 1002              	.LVL75:
 1003              	.L65:
 289:Core/BSP/multi_button.c **** 		} else {
 1004              		.loc 1 289 4 is_stmt 0 view .LVU312
 1005              	.LBE6:
 292:Core/BSP/multi_button.c **** 		}
 293:Core/BSP/multi_button.c **** 	}
 294:Core/BSP/multi_button.c **** 	MULTIBUTTON_UNLOCK();
 295:Core/BSP/multi_button.c **** }
 1006              		.loc 1 295 1 view .LVU313
 1007 001e 7047     		bx	lr
 1008              	.L72:
 1009              		.align	2
 1010              	.L71:
 1011 0020 00000000 		.word	.LANCHOR0
 1012              		.cfi_endproc
 1013              	.LFE10:
 1015              		.section	.text.button_ticks,"ax",%progbits
 1016              		.align	1
 1017              		.global	button_ticks
 1018              		.syntax unified
 1019              		.thumb
 1020              		.thumb_func
 1022              	button_ticks:
ARM GAS  C:\Users\ASUS\AppData\Local\Temp\ccz5ObUH.s 			page 28


 1023              	.LFB11:
 296:Core/BSP/multi_button.c **** 
 297:Core/BSP/multi_button.c **** /**
 298:Core/BSP/multi_button.c ****   * @brief  Background ticks, timer repeat invoking interval 5ms
 299:Core/BSP/multi_button.c ****   *         Callbacks are executed outside the lock so they may safely
 300:Core/BSP/multi_button.c ****   *         call button_start()/button_stop() without deadlock risk.
 301:Core/BSP/multi_button.c ****   * @param  None
 302:Core/BSP/multi_button.c ****   * @retval None
 303:Core/BSP/multi_button.c ****   */
 304:Core/BSP/multi_button.c **** void button_ticks(void)
 305:Core/BSP/multi_button.c **** {
 1024              		.loc 1 305 1 is_stmt 1 view -0
 1025              		.cfi_startproc
 1026              		@ args = 0, pretend = 0, frame = 0
 1027              		@ frame_needed = 0, uses_anonymous_args = 0
 306:Core/BSP/multi_button.c **** 	Button* target;
 1028              		.loc 1 306 2 view .LVU315
 307:Core/BSP/multi_button.c **** 	Button* next;
 1029              		.loc 1 307 2 view .LVU316
 308:Core/BSP/multi_button.c **** 
 309:Core/BSP/multi_button.c **** 	MULTIBUTTON_LOCK();
 1030              		.loc 1 309 20 view .LVU317
 310:Core/BSP/multi_button.c **** 	target = head_handle;
 1031              		.loc 1 310 2 view .LVU318
 1032              		.loc 1 310 9 is_stmt 0 view .LVU319
 1033 0000 054B     		ldr	r3, .L80
 1034 0002 1868     		ldr	r0, [r3]
 1035              	.LVL76:
 311:Core/BSP/multi_button.c **** 	MULTIBUTTON_UNLOCK();
 1036              		.loc 1 311 22 is_stmt 1 view .LVU320
 312:Core/BSP/multi_button.c **** 
 313:Core/BSP/multi_button.c **** 	while (target) {
 1037              		.loc 1 313 2 view .LVU321
 1038              		.loc 1 313 8 view .LVU322
 1039 0004 38B1     		cbz	r0, .L79
 305:Core/BSP/multi_button.c **** 	Button* target;
 1040              		.loc 1 305 1 is_stmt 0 view .LVU323
 1041 0006 10B5     		push	{r4, lr}
 1042              	.LCFI3:
 1043              		.cfi_def_cfa_offset 8
 1044              		.cfi_offset 4, -8
 1045              		.cfi_offset 14, -4
 1046              	.L75:
 314:Core/BSP/multi_button.c **** 		MULTIBUTTON_LOCK();
 1047              		.loc 1 314 21 is_stmt 1 view .LVU324
 315:Core/BSP/multi_button.c **** 		next = target->next;
 1048              		.loc 1 315 3 view .LVU325
 1049              		.loc 1 315 8 is_stmt 0 view .LVU326
 1050 0008 C46A     		ldr	r4, [r0, #44]
 1051              	.LVL77:
 316:Core/BSP/multi_button.c **** 		MULTIBUTTON_UNLOCK();
 1052              		.loc 1 316 23 is_stmt 1 view .LVU327
 317:Core/BSP/multi_button.c **** 
 318:Core/BSP/multi_button.c **** 		button_handler(target);
 1053              		.loc 1 318 3 view .LVU328
 1054 000a FFF7FEFF 		bl	button_handler
 1055              	.LVL78:
ARM GAS  C:\Users\ASUS\AppData\Local\Temp\ccz5ObUH.s 			page 29


 319:Core/BSP/multi_button.c **** 		target = next;
 1056              		.loc 1 319 3 view .LVU329
 1057              		.loc 1 319 10 is_stmt 0 view .LVU330
 1058 000e 2046     		mov	r0, r4
 313:Core/BSP/multi_button.c **** 		MULTIBUTTON_LOCK();
 1059              		.loc 1 313 8 is_stmt 1 view .LVU331
 1060 0010 002C     		cmp	r4, #0
 1061 0012 F9D1     		bne	.L75
 320:Core/BSP/multi_button.c **** 	}
 321:Core/BSP/multi_button.c **** }
 1062              		.loc 1 321 1 is_stmt 0 view .LVU332
 1063 0014 10BD     		pop	{r4, pc}
 1064              	.LVL79:
 1065              	.L79:
 1066              	.LCFI4:
 1067              		.cfi_def_cfa_offset 0
 1068              		.cfi_restore 4
 1069              		.cfi_restore 14
 1070              		.loc 1 321 1 view .LVU333
 1071 0016 7047     		bx	lr
 1072              	.L81:
 1073              		.align	2
 1074              	.L80:
 1075 0018 00000000 		.word	.LANCHOR0
 1076              		.cfi_endproc
 1077              	.LFE11:
 1079              		.section	.bss.head_handle,"aw",%nobits
 1080              		.align	2
 1081              		.set	.LANCHOR0,. + 0
 1084              	head_handle:
 1085 0000 00000000 		.space	4
 1086              		.text
 1087              	.Letext0:
 1088              		.file 2 "d:\\chain\\gcc-arm-none-eabi-10.3-2021.10-win32\\gcc-arm-none-eabi-10.3-2021.10\\arm-none
 1089              		.file 3 "d:\\chain\\gcc-arm-none-eabi-10.3-2021.10-win32\\gcc-arm-none-eabi-10.3-2021.10\\arm-none
 1090              		.file 4 "Core/BSP/multi_button.h"
 1091              		.file 5 "<built-in>"
ARM GAS  C:\Users\ASUS\AppData\Local\Temp\ccz5ObUH.s 			page 30

